

Microchip MPLAB XC8 Assembler V3.00 build 20241204225717 
                                                                                               Tue May 06 15:55:04 2025

Microchip MPLAB XC8 C Compiler v3.00 (Free license) build 20241204225717 Og1 
     1                           	processor	18F47K42
     2                           	fnconf	rparam,??,?,0
     3                           	pagewidth 120
     4                           	opt	flic
     5                           	psect	smallconst,global,reloc=2,class=SMALLCONST,space=0,delta=1,noexec
     6                           	psect	cinit,global,reloc=2,class=CODE,space=0,delta=1
     7                           	psect	bssCOMRAM,global,class=COMRAM,space=1,delta=1,lowdata,noexec
     8                           	psect	bssBANK0,global,class=BANK0,space=1,delta=1,lowdata,noexec
     9                           	psect	cstackBANK0,global,class=BANK0,space=1,delta=1,lowdata,noexec
    10                           	psect	cstackCOMRAM,global,class=COMRAM,space=1,delta=1,lowdata,noexec
    11                           	psect	text0,global,reloc=2,class=CODE,space=0,delta=1
    12                           	psect	text1,global,reloc=2,class=CODE,space=0,delta=1,group=3
    13                           	psect	text2,global,reloc=2,class=CODE,space=0,delta=1,group=3
    14                           	psect	text3,global,reloc=2,class=CODE,space=0,delta=1,group=1
    15                           	psect	text4,global,reloc=2,class=CODE,space=0,delta=1,group=1
    16                           	psect	text5,global,reloc=2,class=CODE,space=0,delta=1,group=3
    17                           	psect	text6,global,reloc=2,class=CODE,space=0,delta=1,group=3
    18                           	psect	text7,global,reloc=2,class=CODE,space=0,delta=1,group=3
    19                           	psect	text8,global,reloc=2,class=CODE,space=0,delta=1,group=2
    20                           	psect	text9,global,reloc=2,class=CODE,space=0,delta=1,group=2
    21                           	psect	text10,global,reloc=2,class=CODE,space=0,delta=1,group=2
    22                           	psect	text11,global,reloc=2,class=CODE,space=0,delta=1,group=2
    23                           	psect	text12,global,reloc=2,class=CODE,space=0,delta=1,group=2
    24                           	psect	text13,global,reloc=2,class=CODE,space=0,delta=1,group=2
    25                           	psect	text14,global,reloc=2,class=CODE,space=0,delta=1
    26                           	psect	text15,global,reloc=2,class=CODE,space=0,delta=1
    27                           	psect	text16,global,reloc=2,class=CODE,space=0,delta=1
    28                           	psect	text17,global,reloc=2,class=CODE,space=0,delta=1
    29                           	psect	text18,global,reloc=2,class=CODE,space=0,delta=1
    30                           	psect	text19,global,reloc=2,class=CODE,space=0,delta=1
    31                           	psect	text20,global,reloc=2,class=CODE,space=0,delta=1
    32                           	psect	text21,global,reloc=2,class=CODE,space=0,delta=1
    33                           	psect	text22,global,reloc=4,class=CODE,space=0,delta=1
    34                           	psect	ivt0x4008,global,reloc=2,class=CODE,space=0,delta=1,noexec,keep,optim=
    35                           	psect	intsave_regs,global,class=BIGRAM,space=1,delta=1,noexec
    36                           	psect	rparam,global,class=COMRAM,space=1,delta=1,noexec
    37                           	psect	config,global,abs,ovrld,class=CONFIG,space=4,delta=1,noexec
    38   000000                     
    39                           ; Generated 12/10/2023 GMT
    40                           ; 
    41                           ; Copyright © 2023, Microchip Technology Inc. and its subsidiaries ("Microchip")
    42                           ; All rights reserved.
    43                           ; 
    44                           ; This software is developed by Microchip Technology Inc. and its subsidiaries ("Microch
      +                          ip").
    45                           ; 
    46                           ; Redistribution and use in source and binary forms, with or without modification, are
    47                           ; permitted provided that the following conditions are met:
    48                           ; 
    49                           ;     1. Redistributions of source code must retain the above copyright notice, this lis
      +                          t of
    50                           ;        conditions and the following disclaimer.
    51                           ; 
    52                           ;     2. Redistributions in binary form must reproduce the above copyright notice, this 
      +                          list
    53                           ;        of conditions and the following disclaimer in the documentation and/or other
    54                           ;        materials provided with the distribution. Publication is not required when
    55                           ;        this file is used in an embedded application.
    56                           ; 
    57                           ;     3. Microchip's name may not be used to endorse or promote products derived from th
      +                          is
    58                           ;        software without specific prior written permission.
    59                           ; 
    60                           ; THIS SOFTWARE IS PROVIDED BY MICROCHIP "AS IS" AND ANY EXPRESS OR IMPLIED WARRANTIES,
    61                           ; INCLUDING, BUT NOT LIMITED TO, THE IMPLIED WARRANTIES OF MERCHANTABILITY AND FITNESS F
      +                          OR
    62                           ; PURPOSE ARE DISCLAIMED.  IN NO EVENT SHALL MICROCHIP BE LIABLE FOR ANY DIRECT, INDIREC
      +                          T,
    63                           ; INCIDENTAL, SPECIAL, EXEMPLARY, OR CONSEQUENTIAL DAMAGES (INCLUDING BUT NOT LIMITED TO
    64                           ; PROCUREMENT OF SUBSTITUTE GOODS OR SERVICES; LOSS OF USE, DATA OR PROFITS; OR BUSINESS
    65                           ; INTERRUPTION) HOWSOEVER CAUSED AND ON ANY THEORY OF LIABILITY, WHETHER IN CONTRACT, ST
      +                          RICT
    66                           ; LIABILITY, OR TORT (INCLUDING NEGLIGENCE OR OTHERWISE) ARISING IN ANY WAY OUT OF THE U
      +                          SE OF
    67                           ; THIS SOFTWARE, EVEN IF ADVISED OF THE POSSIBILITY OF SUCH DAMAGE.
    68                           ; 
    69                           ; 
    70                           ; Code-generator required, PIC18F47K42 Definitions
    71                           ; 
    72                           ; SFR Addresses
    73   003FE0                     bsr             equ	16352
    74   003FE9                     fsr0            equ	16361
    75   003FEA                     fsr0h           equ	16362
    76   003FE9                     fsr0l           equ	16361
    77   003FE1                     fsr1            equ	16353
    78   003FE2                     fsr1h           equ	16354
    79   003FE1                     fsr1l           equ	16353
    80   003FD9                     fsr2            equ	16345
    81   003FDA                     fsr2h           equ	16346
    82   003FD9                     fsr2l           equ	16345
    83   003FEF                     indf0           equ	16367
    84   003FE7                     indf1           equ	16359
    85   003FDF                     indf2           equ	16351
    86   003FD2                     intcon          equ	16338
    87   0039E5                     nvmcon          equ	14821
    88   003FF9                     pcl             equ	16377
    89   003FFA                     pclath          equ	16378
    90   003FFB                     pclatu          equ	16379
    91   003FEB                     plusw0          equ	16363
    92   003FE3                     plusw1          equ	16355
    93   003FDB                     plusw2          equ	16347
    94   003FED                     postdec0        equ	16365
    95   003FE5                     postdec1        equ	16357
    96   003FDD                     postdec2        equ	16349
    97   003FEE                     postinc0        equ	16366
    98   003FE6                     postinc1        equ	16358
    99   003FDE                     postinc2        equ	16350
   100   003FEC                     preinc0         equ	16364
   101   003FE4                     preinc1         equ	16356
   102   003FDC                     preinc2         equ	16348
   103   003FF3                     prod            equ	16371
   104   003FF4                     prodh           equ	16372
   105   003FF3                     prodl           equ	16371
   106   003FD8                     status          equ	16344
   107   003FF5                     tablat          equ	16373
   108   003FF6                     tblptr          equ	16374
   109   003FF7                     tblptrh         equ	16375
   110   003FF6                     tblptrl         equ	16374
   111   003FF8                     tblptru         equ	16376
   112   003FFD                     tosl            equ	16381
   113   003FE8                     wreg            equ	16360
   114   003880                     STATUS_CSHAD    equ	14464	;# 
   115   003881                     WREG_CSHAD      equ	14465	;# 
   116   003882                     BSR_CSHAD       equ	14466	;# 
   117   003883                     SHADCON         equ	14467	;# 
   118   003884                     STATUS_SHAD     equ	14468	;# 
   119   003885                     WREG_SHAD       equ	14469	;# 
   120   003886                     BSR_SHAD        equ	14470	;# 
   121   003887                     PCLATH_SHAD     equ	14471	;# 
   122   003888                     PCLATU_SHAD     equ	14472	;# 
   123   003889                     FSR0SH          equ	14473	;# 
   124   003889                     FSR0L_SHAD      equ	14473	;# 
   125   00388A                     FSR0H_SHAD      equ	14474	;# 
   126   00388B                     FSR1SH          equ	14475	;# 
   127   00388B                     FSR1L_SHAD      equ	14475	;# 
   128   00388C                     FSR1H_SHAD      equ	14476	;# 
   129   00388D                     FSR2SH          equ	14477	;# 
   130   00388D                     FSR2L_SHAD      equ	14477	;# 
   131   00388E                     FSR2H_SHAD      equ	14478	;# 
   132   00388F                     PRODSH          equ	14479	;# 
   133   00388F                     PRODL_SHAD      equ	14479	;# 
   134   003890                     PRODH_SHAD      equ	14480	;# 
   135   00389D                     IVTADL          equ	14493	;# 
   136   00389E                     IVTADH          equ	14494	;# 
   137   00389F                     IVTADU          equ	14495	;# 
   138   00395B                     WDTCON0         equ	14683	;# 
   139   00395C                     WDTCON1         equ	14684	;# 
   140   00395D                     WDTPSL          equ	14685	;# 
   141   00395E                     WDTPSH          equ	14686	;# 
   142   00395F                     WDTTMR          equ	14687	;# 
   143   003960                     CRCDATA         equ	14688	;# 
   144   003960                     CRCDATL         equ	14688	;# 
   145   003961                     CRCDATH         equ	14689	;# 
   146   003962                     CRCACC          equ	14690	;# 
   147   003962                     CRCACCL         equ	14690	;# 
   148   003963                     CRCACCH         equ	14691	;# 
   149   003964                     CRCSHFT         equ	14692	;# 
   150   003964                     CRCSHIFTL       equ	14692	;# 
   151   003965                     CRCSHIFTH       equ	14693	;# 
   152   003966                     CRCXOR          equ	14694	;# 
   153   003966                     CRCXORL         equ	14694	;# 
   154   003967                     CRCXORH         equ	14695	;# 
   155   003968                     CRCCON0         equ	14696	;# 
   156   003969                     CRCCON1         equ	14697	;# 
   157   003976                     SCANLADR        equ	14710	;# 
   158   003976                     SCANLADRL       equ	14710	;# 
   159   003977                     SCANLADRH       equ	14711	;# 
   160   003978                     SCANLADRU       equ	14712	;# 
   161   003979                     SCANHADR        equ	14713	;# 
   162   003979                     SCANHADRL       equ	14713	;# 
   163   00397A                     SCANHADRH       equ	14714	;# 
   164   00397B                     SCANHADRU       equ	14715	;# 
   165   00397C                     SCANCON0        equ	14716	;# 
   166   00397D                     SCANTRIG        equ	14717	;# 
   167   003980                     IPR0            equ	14720	;# 
   168   003981                     IPR1            equ	14721	;# 
   169   003982                     IPR2            equ	14722	;# 
   170   003983                     IPR3            equ	14723	;# 
   171   003984                     IPR4            equ	14724	;# 
   172   003985                     IPR5            equ	14725	;# 
   173   003986                     IPR6            equ	14726	;# 
   174   003987                     IPR7            equ	14727	;# 
   175   003988                     IPR8            equ	14728	;# 
   176   003989                     IPR9            equ	14729	;# 
   177   00398A                     IPR10           equ	14730	;# 
   178   003990                     PIE0            equ	14736	;# 
   179   003991                     PIE1            equ	14737	;# 
   180   003992                     PIE2            equ	14738	;# 
   181   003993                     PIE3            equ	14739	;# 
   182   003994                     PIE4            equ	14740	;# 
   183   003995                     PIE5            equ	14741	;# 
   184   003996                     PIE6            equ	14742	;# 
   185   003997                     PIE7            equ	14743	;# 
   186   003998                     PIE8            equ	14744	;# 
   187   003999                     PIE9            equ	14745	;# 
   188   00399A                     PIE10           equ	14746	;# 
   189   0039A0                     PIR0            equ	14752	;# 
   190   0039A1                     PIR1            equ	14753	;# 
   191   0039A2                     PIR2            equ	14754	;# 
   192   0039A3                     PIR3            equ	14755	;# 
   193   0039A4                     PIR4            equ	14756	;# 
   194   0039A5                     PIR5            equ	14757	;# 
   195   0039A6                     PIR6            equ	14758	;# 
   196   0039A7                     PIR7            equ	14759	;# 
   197   0039A8                     PIR8            equ	14760	;# 
   198   0039A9                     PIR9            equ	14761	;# 
   199   0039AA                     PIR10           equ	14762	;# 
   200   0039C0                     PMD0            equ	14784	;# 
   201   0039C1                     PMD1            equ	14785	;# 
   202   0039C2                     PMD2            equ	14786	;# 
   203   0039C3                     PMD3            equ	14787	;# 
   204   0039C4                     PMD4            equ	14788	;# 
   205   0039C5                     PMD5            equ	14789	;# 
   206   0039C6                     PMD6            equ	14790	;# 
   207   0039C7                     PMD7            equ	14791	;# 
   208   0039D0                     BORCON          equ	14800	;# 
   209   0039D1                     VREGCON         equ	14801	;# 
   210   0039D8                     CPUDOZE         equ	14808	;# 
   211   0039D9                     OSCCON1         equ	14809	;# 
   212   0039DA                     OSCCON2         equ	14810	;# 
   213   0039DB                     OSCCON3         equ	14811	;# 
   214   0039DC                     OSCSTAT         equ	14812	;# 
   215   0039DC                     OSCSTAT1        equ	14812	;# 
   216   0039DD                     OSCEN           equ	14813	;# 
   217   0039DE                     OSCTUNE         equ	14814	;# 
   218   0039DF                     OSCFRQ          equ	14815	;# 
   219   0039E0                     NVMADRL         equ	14816	;# 
   220   0039E1                     NVMADRH         equ	14817	;# 
   221   0039E3                     NVMDAT          equ	14819	;# 
   222   0039E5                     NVMCON1         equ	14821	;# 
   223   0039E6                     NVMCON2         equ	14822	;# 
   224   0039EF                     PRLOCK          equ	14831	;# 
   225   0039F1                     ISRPR           equ	14833	;# 
   226   0039F2                     MAINPR          equ	14834	;# 
   227   0039F3                     DMA1PR          equ	14835	;# 
   228   0039F4                     DMA2PR          equ	14836	;# 
   229   0039F7                     SCANPR          equ	14839	;# 
   230   003A00                     RA0PPS          equ	14848	;# 
   231   003A01                     RA1PPS          equ	14849	;# 
   232   003A02                     RA2PPS          equ	14850	;# 
   233   003A03                     RA3PPS          equ	14851	;# 
   234   003A04                     RA4PPS          equ	14852	;# 
   235   003A05                     RA5PPS          equ	14853	;# 
   236   003A06                     RA6PPS          equ	14854	;# 
   237   003A07                     RA7PPS          equ	14855	;# 
   238   003A08                     RB0PPS          equ	14856	;# 
   239   003A09                     RB1PPS          equ	14857	;# 
   240   003A0A                     RB2PPS          equ	14858	;# 
   241   003A0B                     RB3PPS          equ	14859	;# 
   242   003A0C                     RB4PPS          equ	14860	;# 
   243   003A0D                     RB5PPS          equ	14861	;# 
   244   003A0E                     RB6PPS          equ	14862	;# 
   245   003A0F                     RB7PPS          equ	14863	;# 
   246   003A10                     RC0PPS          equ	14864	;# 
   247   003A11                     RC1PPS          equ	14865	;# 
   248   003A12                     RC2PPS          equ	14866	;# 
   249   003A13                     RC3PPS          equ	14867	;# 
   250   003A14                     RC4PPS          equ	14868	;# 
   251   003A15                     RC5PPS          equ	14869	;# 
   252   003A16                     RC6PPS          equ	14870	;# 
   253   003A17                     RC7PPS          equ	14871	;# 
   254   003A18                     RD0PPS          equ	14872	;# 
   255   003A19                     RD1PPS          equ	14873	;# 
   256   003A1A                     RD2PPS          equ	14874	;# 
   257   003A1B                     RD3PPS          equ	14875	;# 
   258   003A1C                     RD4PPS          equ	14876	;# 
   259   003A1D                     RD5PPS          equ	14877	;# 
   260   003A1E                     RD6PPS          equ	14878	;# 
   261   003A1F                     RD7PPS          equ	14879	;# 
   262   003A20                     RE0PPS          equ	14880	;# 
   263   003A21                     RE1PPS          equ	14881	;# 
   264   003A22                     RE2PPS          equ	14882	;# 
   265   003A40                     ANSELA          equ	14912	;# 
   266   003A41                     WPUA            equ	14913	;# 
   267   003A42                     ODCONA          equ	14914	;# 
   268   003A43                     SLRCONA         equ	14915	;# 
   269   003A44                     INLVLA          equ	14916	;# 
   270   003A45                     IOCAP           equ	14917	;# 
   271   003A46                     IOCAN           equ	14918	;# 
   272   003A47                     IOCAF           equ	14919	;# 
   273   003A50                     ANSELB          equ	14928	;# 
   274   003A51                     WPUB            equ	14929	;# 
   275   003A52                     ODCONB          equ	14930	;# 
   276   003A53                     SLRCONB         equ	14931	;# 
   277   003A54                     INLVLB          equ	14932	;# 
   278   003A55                     IOCBP           equ	14933	;# 
   279   003A56                     IOCBN           equ	14934	;# 
   280   003A57                     IOCBF           equ	14935	;# 
   281   003A5A                     RB1I2C          equ	14938	;# 
   282   003A5B                     RB2I2C          equ	14939	;# 
   283   003A60                     ANSELC          equ	14944	;# 
   284   003A61                     WPUC            equ	14945	;# 
   285   003A62                     ODCONC          equ	14946	;# 
   286   003A63                     SLRCONC         equ	14947	;# 
   287   003A64                     INLVLC          equ	14948	;# 
   288   003A65                     IOCCP           equ	14949	;# 
   289   003A66                     IOCCN           equ	14950	;# 
   290   003A67                     IOCCF           equ	14951	;# 
   291   003A6A                     RC3I2C          equ	14954	;# 
   292   003A6B                     RC4I2C          equ	14955	;# 
   293   003A70                     ANSELD          equ	14960	;# 
   294   003A71                     WPUD            equ	14961	;# 
   295   003A72                     ODCOND          equ	14962	;# 
   296   003A73                     SLRCOND         equ	14963	;# 
   297   003A74                     INLVLD          equ	14964	;# 
   298   003A7A                     RD0I2C          equ	14970	;# 
   299   003A7B                     RD1I2C          equ	14971	;# 
   300   003A80                     ANSELE          equ	14976	;# 
   301   003A81                     WPUE            equ	14977	;# 
   302   003A82                     ODCONE          equ	14978	;# 
   303   003A83                     SLRCONE         equ	14979	;# 
   304   003A84                     INLVLE          equ	14980	;# 
   305   003A85                     IOCEP           equ	14981	;# 
   306   003A86                     IOCEN           equ	14982	;# 
   307   003A87                     IOCEF           equ	14983	;# 
   308   003ABF                     PPSLOCK         equ	15039	;# 
   309   003AC0                     INT0PPS         equ	15040	;# 
   310   003AC1                     INT1PPS         equ	15041	;# 
   311   003AC2                     INT2PPS         equ	15042	;# 
   312   003AC3                     T0CKIPPS        equ	15043	;# 
   313   003AC4                     T1CKIPPS        equ	15044	;# 
   314   003AC5                     T1GPPS          equ	15045	;# 
   315   003AC6                     T3CKIPPS        equ	15046	;# 
   316   003AC7                     T3GPPS          equ	15047	;# 
   317   003AC8                     T5CKIPPS        equ	15048	;# 
   318   003AC9                     T5GPPS          equ	15049	;# 
   319   003ACA                     T2INPPS         equ	15050	;# 
   320   003ACB                     T4INPPS         equ	15051	;# 
   321   003ACC                     T6INPPS         equ	15052	;# 
   322   003ACD                     CCP1PPS         equ	15053	;# 
   323   003ACE                     CCP2PPS         equ	15054	;# 
   324   003ACF                     CCP3PPS         equ	15055	;# 
   325   003AD0                     CCP4PPS         equ	15056	;# 
   326   003AD1                     SMT1WINPPS      equ	15057	;# 
   327   003AD2                     SMT1SIGPPS      equ	15058	;# 
   328   003AD3                     CWG1INPPS       equ	15059	;# 
   329   003AD4                     CWG2INPPS       equ	15060	;# 
   330   003AD5                     CWG3INPPS       equ	15061	;# 
   331   003AD6                     MD1CARLPPS      equ	15062	;# 
   332   003AD7                     MD1CARHPPS      equ	15063	;# 
   333   003AD8                     MD1SRCPPS       equ	15064	;# 
   334   003AD9                     CLCIN0PPS       equ	15065	;# 
   335   003ADA                     CLCIN1PPS       equ	15066	;# 
   336   003ADB                     CLCIN2PPS       equ	15067	;# 
   337   003ADC                     CLCIN3PPS       equ	15068	;# 
   338   003ADD                     ADACTPPS        equ	15069	;# 
   339   003ADE                     SPI1SCKPPS      equ	15070	;# 
   340   003ADF                     SPI1SDIPPS      equ	15071	;# 
   341   003AE0                     SPI1SSPPS       equ	15072	;# 
   342   003AE1                     I2C1SCLPPS      equ	15073	;# 
   343   003AE2                     I2C1SDAPPS      equ	15074	;# 
   344   003AE3                     I2C2SCLPPS      equ	15075	;# 
   345   003AE4                     I2C2SDAPPS      equ	15076	;# 
   346   003AE5                     U1RXPPS         equ	15077	;# 
   347   003AE6                     U1CTSPPS        equ	15078	;# 
   348   003AE8                     U2RXPPS         equ	15080	;# 
   349   003AE9                     U2CTSPPS        equ	15081	;# 
   350   003BC9                     DMA2BUF         equ	15305	;# 
   351   003BCA                     DMA2DCNT        equ	15306	;# 
   352   003BCA                     DMA2DCNTL       equ	15306	;# 
   353   003BCB                     DMA2DCNTH       equ	15307	;# 
   354   003BCC                     DMA2DPTR        equ	15308	;# 
   355   003BCC                     DMA2DPTRL       equ	15308	;# 
   356   003BCD                     DMA2DPTRH       equ	15309	;# 
   357   003BCE                     DMA2DSZ         equ	15310	;# 
   358   003BCE                     DMA2DSZL        equ	15310	;# 
   359   003BCF                     DMA2DSZH        equ	15311	;# 
   360   003BD0                     DMA2DSA         equ	15312	;# 
   361   003BD0                     DMA2DSAL        equ	15312	;# 
   362   003BD1                     DMA2DSAH        equ	15313	;# 
   363   003BD2                     DMA2SCNT        equ	15314	;# 
   364   003BD2                     DMA2SCNTL       equ	15314	;# 
   365   003BD3                     DMA2SCNTH       equ	15315	;# 
   366   003BD4                     DMA2SPTR        equ	15316	;# 
   367   003BD4                     DMA2SPTRL       equ	15316	;# 
   368   003BD5                     DMA2SPTRH       equ	15317	;# 
   369   003BD6                     DMA2SPTRU       equ	15318	;# 
   370   003BD7                     DMA2SSZ         equ	15319	;# 
   371   003BD7                     DMA2SSZL        equ	15319	;# 
   372   003BD8                     DMA2SSZH        equ	15320	;# 
   373   003BD9                     DMA2SSA         equ	15321	;# 
   374   003BD9                     DMA2SSAL        equ	15321	;# 
   375   003BDA                     DMA2SSAH        equ	15322	;# 
   376   003BDB                     DMA2SSAU        equ	15323	;# 
   377   003BDC                     DMA2CON0        equ	15324	;# 
   378   003BDD                     DMA2CON1        equ	15325	;# 
   379   003BDE                     DMA2AIRQ        equ	15326	;# 
   380   003BDF                     DMA2SIRQ        equ	15327	;# 
   381   003BE9                     DMA1BUF         equ	15337	;# 
   382   003BEA                     DMA1DCNT        equ	15338	;# 
   383   003BEA                     DMA1DCNTL       equ	15338	;# 
   384   003BEB                     DMA1DCNTH       equ	15339	;# 
   385   003BEC                     DMA1DPTR        equ	15340	;# 
   386   003BEC                     DMA1DPTRL       equ	15340	;# 
   387   003BED                     DMA1DPTRH       equ	15341	;# 
   388   003BEE                     DMA1DSZ         equ	15342	;# 
   389   003BEE                     DMA1DSZL        equ	15342	;# 
   390   003BEF                     DMA1DSZH        equ	15343	;# 
   391   003BF0                     DMA1DSA         equ	15344	;# 
   392   003BF0                     DMA1DSAL        equ	15344	;# 
   393   003BF1                     DMA1DSAH        equ	15345	;# 
   394   003BF2                     DMA1SCNT        equ	15346	;# 
   395   003BF2                     DMA1SCNTL       equ	15346	;# 
   396   003BF3                     DMA1SCNTH       equ	15347	;# 
   397   003BF4                     DMA1SPTR        equ	15348	;# 
   398   003BF4                     DMA1SPTRL       equ	15348	;# 
   399   003BF5                     DMA1SPTRH       equ	15349	;# 
   400   003BF6                     DMA1SPTRU       equ	15350	;# 
   401   003BF7                     DMA1SSZ         equ	15351	;# 
   402   003BF7                     DMA1SSZL        equ	15351	;# 
   403   003BF8                     DMA1SSZH        equ	15352	;# 
   404   003BF9                     DMA1SSA         equ	15353	;# 
   405   003BF9                     DMA1SSAL        equ	15353	;# 
   406   003BFA                     DMA1SSAH        equ	15354	;# 
   407   003BFB                     DMA1SSAU        equ	15355	;# 
   408   003BFC                     DMA1CON0        equ	15356	;# 
   409   003BFD                     DMA1CON1        equ	15357	;# 
   410   003BFE                     DMA1AIRQ        equ	15358	;# 
   411   003BFF                     DMA1SIRQ        equ	15359	;# 
   412   003C56                     CLC4CON         equ	15446	;# 
   413   003C57                     CLC4POL         equ	15447	;# 
   414   003C58                     CLC4SEL0        equ	15448	;# 
   415   003C59                     CLC4SEL1        equ	15449	;# 
   416   003C5A                     CLC4SEL2        equ	15450	;# 
   417   003C5B                     CLC4SEL3        equ	15451	;# 
   418   003C5C                     CLC4GLS0        equ	15452	;# 
   419   003C5D                     CLC4GLS1        equ	15453	;# 
   420   003C5E                     CLC4GLS2        equ	15454	;# 
   421   003C5F                     CLC4GLS3        equ	15455	;# 
   422   003C60                     CLC3CON         equ	15456	;# 
   423   003C61                     CLC3POL         equ	15457	;# 
   424   003C62                     CLC3SEL0        equ	15458	;# 
   425   003C63                     CLC3SEL1        equ	15459	;# 
   426   003C64                     CLC3SEL2        equ	15460	;# 
   427   003C65                     CLC3SEL3        equ	15461	;# 
   428   003C66                     CLC3GLS0        equ	15462	;# 
   429   003C67                     CLC3GLS1        equ	15463	;# 
   430   003C68                     CLC3GLS2        equ	15464	;# 
   431   003C69                     CLC3GLS3        equ	15465	;# 
   432   003C6A                     CLC2CON         equ	15466	;# 
   433   003C6B                     CLC2POL         equ	15467	;# 
   434   003C6C                     CLC2SEL0        equ	15468	;# 
   435   003C6D                     CLC2SEL1        equ	15469	;# 
   436   003C6E                     CLC2SEL2        equ	15470	;# 
   437   003C6F                     CLC2SEL3        equ	15471	;# 
   438   003C70                     CLC2GLS0        equ	15472	;# 
   439   003C71                     CLC2GLS1        equ	15473	;# 
   440   003C72                     CLC2GLS2        equ	15474	;# 
   441   003C73                     CLC2GLS3        equ	15475	;# 
   442   003C74                     CLC1CON         equ	15476	;# 
   443   003C75                     CLC1POL         equ	15477	;# 
   444   003C76                     CLC1SEL0        equ	15478	;# 
   445   003C77                     CLC1SEL1        equ	15479	;# 
   446   003C78                     CLC1SEL2        equ	15480	;# 
   447   003C79                     CLC1SEL3        equ	15481	;# 
   448   003C7A                     CLC1GLS0        equ	15482	;# 
   449   003C7B                     CLC1GLS1        equ	15483	;# 
   450   003C7C                     CLC1GLS2        equ	15484	;# 
   451   003C7D                     CLC1GLS3        equ	15485	;# 
   452   003C7E                     CLCDATA0        equ	15486	;# 
   453   003CE5                     CLKRCON         equ	15589	;# 
   454   003CE6                     CLKRCLK         equ	15590	;# 
   455   003CFA                     MD1CON0         equ	15610	;# 
   456   003CFB                     MD1CON1         equ	15611	;# 
   457   003CFC                     MD1SRC          equ	15612	;# 
   458   003CFD                     MD1CARL         equ	15613	;# 
   459   003CFE                     MD1CARH         equ	15614	;# 
   460   003D10                     SPI1RXB         equ	15632	;# 
   461   003D11                     SPI1TXB         equ	15633	;# 
   462   003D12                     SPI1TCNT        equ	15634	;# 
   463   003D12                     SPI1TCNTL       equ	15634	;# 
   464   003D13                     SPI1TCNTH       equ	15635	;# 
   465   003D14                     SPI1CON0        equ	15636	;# 
   466   003D15                     SPI1CON1        equ	15637	;# 
   467   003D16                     SPI1CON2        equ	15638	;# 
   468   003D17                     SPI1STATUS      equ	15639	;# 
   469   003D18                     SPI1TWIDTH      equ	15640	;# 
   470   003D19                     SPI1BAUD        equ	15641	;# 
   471   003D1A                     SPI1INTF        equ	15642	;# 
   472   003D1B                     SPI1INTE        equ	15643	;# 
   473   003D1C                     SPI1CLK         equ	15644	;# 
   474   003D54                     I2C2RXB         equ	15700	;# 
   475   003D55                     I2C2TXB         equ	15701	;# 
   476   003D56                     I2C2CNT         equ	15702	;# 
   477   003D57                     I2C2ADB0        equ	15703	;# 
   478   003D58                     I2C2ADB1        equ	15704	;# 
   479   003D59                     I2C2ADR0        equ	15705	;# 
   480   003D5A                     I2C2ADR1        equ	15706	;# 
   481   003D5B                     I2C2ADR2        equ	15707	;# 
   482   003D5C                     I2C2ADR3        equ	15708	;# 
   483   003D5D                     I2C2CON0        equ	15709	;# 
   484   003D5E                     I2C2CON1        equ	15710	;# 
   485   003D5F                     I2C2CON2        equ	15711	;# 
   486   003D60                     I2C2ERR         equ	15712	;# 
   487   003D61                     I2C2STAT0       equ	15713	;# 
   488   003D62                     I2C2STAT1       equ	15714	;# 
   489   003D63                     I2C2PIR         equ	15715	;# 
   490   003D64                     I2C2PIE         equ	15716	;# 
   491   003D65                     I2C2CLK         equ	15717	;# 
   492   003D66                     I2C2BTO         equ	15718	;# 
   493   003D6A                     I2C1RXB         equ	15722	;# 
   494   003D6B                     I2C1TXB         equ	15723	;# 
   495   003D6C                     I2C1CNT         equ	15724	;# 
   496   003D6D                     I2C1ADB0        equ	15725	;# 
   497   003D6E                     I2C1ADB1        equ	15726	;# 
   498   003D6F                     I2C1ADR0        equ	15727	;# 
   499   003D70                     I2C1ADR1        equ	15728	;# 
   500   003D71                     I2C1ADR2        equ	15729	;# 
   501   003D72                     I2C1ADR3        equ	15730	;# 
   502   003D73                     I2C1CON0        equ	15731	;# 
   503   003D74                     I2C1CON1        equ	15732	;# 
   504   003D75                     I2C1CON2        equ	15733	;# 
   505   003D76                     I2C1ERR         equ	15734	;# 
   506   003D77                     I2C1STAT0       equ	15735	;# 
   507   003D78                     I2C1STAT1       equ	15736	;# 
   508   003D79                     I2C1PIR         equ	15737	;# 
   509   003D7A                     I2C1PIE         equ	15738	;# 
   510   003D7B                     I2C1CLK         equ	15739	;# 
   511   003D7C                     I2C1BTO         equ	15740	;# 
   512   003DD0                     U2RXB           equ	15824	;# 
   513   003DD0                     U2RXBL          equ	15824	;# 
   514   003DD2                     U2TXB           equ	15826	;# 
   515   003DD2                     U2TXBL          equ	15826	;# 
   516   003DD4                     U2P1            equ	15828	;# 
   517   003DD4                     U2P1L           equ	15828	;# 
   518   003DD6                     U2P2            equ	15830	;# 
   519   003DD6                     U2P2L           equ	15830	;# 
   520   003DD8                     U2P3            equ	15832	;# 
   521   003DD8                     U2P3L           equ	15832	;# 
   522   003DDA                     U2CON0          equ	15834	;# 
   523   003DDB                     U2CON1          equ	15835	;# 
   524   003DDC                     U2CON2          equ	15836	;# 
   525   003DDD                     U2BRG           equ	15837	;# 
   526   003DDD                     U2BRGL          equ	15837	;# 
   527   003DDE                     U2BRGH          equ	15838	;# 
   528   003DDF                     U2FIFO          equ	15839	;# 
   529   003DE0                     U2UIR           equ	15840	;# 
   530   003DE1                     U2ERRIR         equ	15841	;# 
   531   003DE2                     U2ERRIE         equ	15842	;# 
   532   003DE8                     U1RXB           equ	15848	;# 
   533   003DE8                     U1RXBL          equ	15848	;# 
   534   003DE9                     U1RXCHK         equ	15849	;# 
   535   003DEA                     U1TXB           equ	15850	;# 
   536   003DEA                     U1TXBL          equ	15850	;# 
   537   003DEB                     U1TXCHK         equ	15851	;# 
   538   003DEC                     U1P1            equ	15852	;# 
   539   003DEC                     U1P1L           equ	15852	;# 
   540   003DED                     U1P1H           equ	15853	;# 
   541   003DEE                     U1P2            equ	15854	;# 
   542   003DEE                     U1P2L           equ	15854	;# 
   543   003DEF                     U1P2H           equ	15855	;# 
   544   003DF0                     U1P3            equ	15856	;# 
   545   003DF0                     U1P3L           equ	15856	;# 
   546   003DF1                     U1P3H           equ	15857	;# 
   547   003DF2                     U1CON0          equ	15858	;# 
   548   003DF3                     U1CON1          equ	15859	;# 
   549   003DF4                     U1CON2          equ	15860	;# 
   550   003DF5                     U1BRG           equ	15861	;# 
   551   003DF5                     U1BRGL          equ	15861	;# 
   552   003DF6                     U1BRGH          equ	15862	;# 
   553   003DF7                     U1FIFO          equ	15863	;# 
   554   003DF8                     U1UIR           equ	15864	;# 
   555   003DF9                     U1ERRIR         equ	15865	;# 
   556   003DFA                     U1ERRIE         equ	15866	;# 
   557   003E9C                     DAC1CON1        equ	16028	;# 
   558   003E9E                     DAC1CON0        equ	16030	;# 
   559   003EB8                     CM2CON0         equ	16056	;# 
   560   003EB9                     CM2CON1         equ	16057	;# 
   561   003EBA                     CM2NCH          equ	16058	;# 
   562   003EBB                     CM2PCH          equ	16059	;# 
   563   003EBC                     CM1CON0         equ	16060	;# 
   564   003EBD                     CM1CON1         equ	16061	;# 
   565   003EBE                     CM1NCH          equ	16062	;# 
   566   003EBF                     CM1PCH          equ	16063	;# 
   567   003EC0                     CMOUT           equ	16064	;# 
   568   003EC1                     FVRCON          equ	16065	;# 
   569   003EC3                     ZCDCON          equ	16067	;# 
   570   003EC9                     HLVDCON0        equ	16073	;# 
   571   003ECA                     HLVDCON1        equ	16074	;# 
   572   003ED7                     ADCP            equ	16087	;# 
   573   003EDE                     ADLTH           equ	16094	;# 
   574   003EDE                     ADLTHL          equ	16094	;# 
   575   003EDF                     ADLTHH          equ	16095	;# 
   576   003EE0                     ADUTH           equ	16096	;# 
   577   003EE0                     ADUTHL          equ	16096	;# 
   578   003EE1                     ADUTHH          equ	16097	;# 
   579   003EE2                     ADERR           equ	16098	;# 
   580   003EE2                     ADERRL          equ	16098	;# 
   581   003EE3                     ADERRH          equ	16099	;# 
   582   003EE4                     ADSTPT          equ	16100	;# 
   583   003EE4                     ADSTPTL         equ	16100	;# 
   584   003EE5                     ADSTPTH         equ	16101	;# 
   585   003EE6                     ADFLTR          equ	16102	;# 
   586   003EE6                     ADFLTRL         equ	16102	;# 
   587   003EE7                     ADFLTRH         equ	16103	;# 
   588   003EE8                     ADACC           equ	16104	;# 
   589   003EE8                     ADACCL          equ	16104	;# 
   590   003EE9                     ADACCH          equ	16105	;# 
   591   003EEA                     ADACCU          equ	16106	;# 
   592   003EEB                     ADCNT           equ	16107	;# 
   593   003EEC                     ADRPT           equ	16108	;# 
   594   003EED                     ADPREV          equ	16109	;# 
   595   003EED                     ADPREVL         equ	16109	;# 
   596   003EEE                     ADPREVH         equ	16110	;# 
   597   003EEF                     ADRES           equ	16111	;# 
   598   003EEF                     ADRESL          equ	16111	;# 
   599   003EF0                     ADRESH          equ	16112	;# 
   600   003EF1                     ADPCH           equ	16113	;# 
   601   003EF3                     ADACQ           equ	16115	;# 
   602   003EF3                     ADACQL          equ	16115	;# 
   603   003EF4                     ADACQH          equ	16116	;# 
   604   003EF5                     ADCAP           equ	16117	;# 
   605   003EF6                     ADPRE           equ	16118	;# 
   606   003EF6                     ADPREL          equ	16118	;# 
   607   003EF7                     ADPREH          equ	16119	;# 
   608   003EF8                     ADCON0          equ	16120	;# 
   609   003EF9                     ADCON1          equ	16121	;# 
   610   003EFA                     ADCON2          equ	16122	;# 
   611   003EFB                     ADCON3          equ	16123	;# 
   612   003EFC                     ADSTAT          equ	16124	;# 
   613   003EFD                     ADREF           equ	16125	;# 
   614   003EFE                     ADACT           equ	16126	;# 
   615   003EFF                     ADCLK           equ	16127	;# 
   616   003F12                     SMT1TMR         equ	16146	;# 
   617   003F12                     SMT1TMRL        equ	16146	;# 
   618   003F13                     SMT1TMRH        equ	16147	;# 
   619   003F14                     SMT1TMRU        equ	16148	;# 
   620   003F15                     SMT1CPR         equ	16149	;# 
   621   003F15                     SMT1CPRL        equ	16149	;# 
   622   003F16                     SMT1CPRH        equ	16150	;# 
   623   003F17                     SMT1CPRU        equ	16151	;# 
   624   003F18                     SMT1CPW         equ	16152	;# 
   625   003F18                     SMT1CPWL        equ	16152	;# 
   626   003F19                     SMT1CPWH        equ	16153	;# 
   627   003F1A                     SMT1CPWU        equ	16154	;# 
   628   003F1B                     SMT1PR          equ	16155	;# 
   629   003F1B                     SMT1PRL         equ	16155	;# 
   630   003F1C                     SMT1PRH         equ	16156	;# 
   631   003F1D                     SMT1PRU         equ	16157	;# 
   632   003F1E                     SMT1CON0        equ	16158	;# 
   633   003F1F                     SMT1CON1        equ	16159	;# 
   634   003F20                     SMT1STAT        equ	16160	;# 
   635   003F21                     SMT1CLK         equ	16161	;# 
   636   003F22                     SMT1SIG         equ	16162	;# 
   637   003F23                     SMT1WIN         equ	16163	;# 
   638   003F38                     NCO1ACC         equ	16184	;# 
   639   003F38                     NCO1ACCL        equ	16184	;# 
   640   003F39                     NCO1ACCH        equ	16185	;# 
   641   003F3A                     NCO1ACCU        equ	16186	;# 
   642   003F3B                     NCO1INC         equ	16187	;# 
   643   003F3B                     NCO1INCL        equ	16187	;# 
   644   003F3C                     NCO1INCH        equ	16188	;# 
   645   003F3D                     NCO1INCU        equ	16189	;# 
   646   003F3E                     NCO1CON         equ	16190	;# 
   647   003F3F                     NCO1CLK         equ	16191	;# 
   648   003F40                     CWG3CLK         equ	16192	;# 
   649   003F40                     CWG3CLKCON      equ	16192	;# 
   650   003F41                     CWG3ISM         equ	16193	;# 
   651   003F41                     CWG3DAT         equ	16193	;# 
   652   003F42                     CWG3DBR         equ	16194	;# 
   653   003F43                     CWG3DBF         equ	16195	;# 
   654   003F44                     CWG3CON0        equ	16196	;# 
   655   003F45                     CWG3CON1        equ	16197	;# 
   656   003F46                     CWG3AS0         equ	16198	;# 
   657   003F47                     CWG3AS1         equ	16199	;# 
   658   003F48                     CWG3STR         equ	16200	;# 
   659   003F49                     CWG2CLK         equ	16201	;# 
   660   003F49                     CWG2CLKCON      equ	16201	;# 
   661   003F4A                     CWG2ISM         equ	16202	;# 
   662   003F4A                     CWG2DAT         equ	16202	;# 
   663   003F4B                     CWG2DBR         equ	16203	;# 
   664   003F4C                     CWG2DBF         equ	16204	;# 
   665   003F4D                     CWG2CON0        equ	16205	;# 
   666   003F4E                     CWG2CON1        equ	16206	;# 
   667   003F4F                     CWG2AS0         equ	16207	;# 
   668   003F50                     CWG2AS1         equ	16208	;# 
   669   003F51                     CWG2STR         equ	16209	;# 
   670   003F52                     CWG1CLK         equ	16210	;# 
   671   003F52                     CWG1CLKCON      equ	16210	;# 
   672   003F53                     CWG1ISM         equ	16211	;# 
   673   003F53                     CWG1DAT         equ	16211	;# 
   674   003F54                     CWG1DBR         equ	16212	;# 
   675   003F55                     CWG1DBF         equ	16213	;# 
   676   003F56                     CWG1CON0        equ	16214	;# 
   677   003F57                     CWG1CON1        equ	16215	;# 
   678   003F58                     CWG1AS0         equ	16216	;# 
   679   003F59                     CWG1AS1         equ	16217	;# 
   680   003F5A                     CWG1STR         equ	16218	;# 
   681   003F5E                     CCPTMRS0        equ	16222	;# 
   682   003F5F                     CCPTMRS1        equ	16223	;# 
   683   003F60                     PWM8DC          equ	16224	;# 
   684   003F60                     PWM8DCL         equ	16224	;# 
   685   003F61                     PWM8DCH         equ	16225	;# 
   686   003F62                     PWM8CON         equ	16226	;# 
   687   003F64                     PWM7DC          equ	16228	;# 
   688   003F64                     PWM7DCL         equ	16228	;# 
   689   003F65                     PWM7DCH         equ	16229	;# 
   690   003F66                     PWM7CON         equ	16230	;# 
   691   003F68                     PWM6DC          equ	16232	;# 
   692   003F68                     PWM6DCL         equ	16232	;# 
   693   003F69                     PWM6DCH         equ	16233	;# 
   694   003F6A                     PWM6CON         equ	16234	;# 
   695   003F6C                     PWM5DC          equ	16236	;# 
   696   003F6C                     PWM5DCL         equ	16236	;# 
   697   003F6D                     PWM5DCH         equ	16237	;# 
   698   003F6E                     PWM5CON         equ	16238	;# 
   699   003F70                     CCPR4           equ	16240	;# 
   700   003F70                     CCPR4L          equ	16240	;# 
   701   003F71                     CCPR4H          equ	16241	;# 
   702   003F72                     CCP4CON         equ	16242	;# 
   703   003F73                     CCP4CAP         equ	16243	;# 
   704   003F74                     CCPR3           equ	16244	;# 
   705   003F74                     CCPR3L          equ	16244	;# 
   706   003F75                     CCPR3H          equ	16245	;# 
   707   003F76                     CCP3CON         equ	16246	;# 
   708   003F77                     CCP3CAP         equ	16247	;# 
   709   003F78                     CCPR2           equ	16248	;# 
   710   003F78                     CCPR2L          equ	16248	;# 
   711   003F79                     CCPR2H          equ	16249	;# 
   712   003F7A                     CCP2CON         equ	16250	;# 
   713   003F7B                     CCP2CAP         equ	16251	;# 
   714   003F7C                     CCPR1           equ	16252	;# 
   715   003F7C                     CCPR1L          equ	16252	;# 
   716   003F7D                     CCPR1H          equ	16253	;# 
   717   003F7E                     CCP1CON         equ	16254	;# 
   718   003F7F                     CCP1CAP         equ	16255	;# 
   719   003F92                     T6TMR           equ	16274	;# 
   720   003F92                     TMR6            equ	16274	;# 
   721   003F93                     T6PR            equ	16275	;# 
   722   003F93                     PR6             equ	16275	;# 
   723   003F94                     T6CON           equ	16276	;# 
   724   003F95                     T6HLT           equ	16277	;# 
   725   003F96                     T6CLKCON        equ	16278	;# 
   726   003F96                     T6CLK           equ	16278	;# 
   727   003F97                     T6RST           equ	16279	;# 
   728   003F98                     TMR5            equ	16280	;# 
   729   003F98                     TMR5L           equ	16280	;# 
   730   003F99                     TMR5H           equ	16281	;# 
   731   003F9A                     T5CON           equ	16282	;# 
   732   003F9A                     TMR5CON         equ	16282	;# 
   733   003F9B                     T5GCON          equ	16283	;# 
   734   003F9B                     TMR5GCON        equ	16283	;# 
   735   003F9C                     T5GATE          equ	16284	;# 
   736   003F9C                     TMR5GATE        equ	16284	;# 
   737   003F9D                     T5CLK           equ	16285	;# 
   738   003F9D                     TMR5CLK         equ	16285	;# 
   739   003F9D                     PR5             equ	16285	;# 
   740   003F9E                     T4TMR           equ	16286	;# 
   741   003F9E                     TMR4            equ	16286	;# 
   742   003F9F                     T4PR            equ	16287	;# 
   743   003F9F                     PR4             equ	16287	;# 
   744   003FA0                     T4CON           equ	16288	;# 
   745   003FA1                     T4HLT           equ	16289	;# 
   746   003FA2                     T4CLKCON        equ	16290	;# 
   747   003FA2                     T4CLK           equ	16290	;# 
   748   003FA3                     T4RST           equ	16291	;# 
   749   003FA4                     TMR3            equ	16292	;# 
   750   003FA4                     TMR3L           equ	16292	;# 
   751   003FA5                     TMR3H           equ	16293	;# 
   752   003FA6                     T3CON           equ	16294	;# 
   753   003FA6                     TMR3CON         equ	16294	;# 
   754   003FA7                     T3GCON          equ	16295	;# 
   755   003FA7                     TMR3GCON        equ	16295	;# 
   756   003FA8                     T3GATE          equ	16296	;# 
   757   003FA8                     TMR3GATE        equ	16296	;# 
   758   003FA9                     T3CLK           equ	16297	;# 
   759   003FA9                     TMR3CLK         equ	16297	;# 
   760   003FA9                     PR3             equ	16297	;# 
   761   003FAA                     T2TMR           equ	16298	;# 
   762   003FAA                     TMR2            equ	16298	;# 
   763   003FAB                     T2PR            equ	16299	;# 
   764   003FAB                     PR2             equ	16299	;# 
   765   003FAC                     T2CON           equ	16300	;# 
   766   003FAD                     T2HLT           equ	16301	;# 
   767   003FAE                     T2CLKCON        equ	16302	;# 
   768   003FAE                     T2CLK           equ	16302	;# 
   769   003FAF                     T2RST           equ	16303	;# 
   770   003FB0                     TMR1            equ	16304	;# 
   771   003FB0                     TMR1L           equ	16304	;# 
   772   003FB1                     TMR1H           equ	16305	;# 
   773   003FB2                     T1CON           equ	16306	;# 
   774   003FB2                     TMR1CON         equ	16306	;# 
   775   003FB3                     T1GCON          equ	16307	;# 
   776   003FB3                     TMR1GCON        equ	16307	;# 
   777   003FB4                     T1GATE          equ	16308	;# 
   778   003FB4                     TMR1GATE        equ	16308	;# 
   779   003FB5                     T1CLK           equ	16309	;# 
   780   003FB5                     TMR1CLK         equ	16309	;# 
   781   003FB5                     PR1             equ	16309	;# 
   782   003FB6                     TMR0L           equ	16310	;# 
   783   003FB6                     TMR0            equ	16310	;# 
   784   003FB7                     TMR0H           equ	16311	;# 
   785   003FB7                     PR0             equ	16311	;# 
   786   003FB8                     T0CON0          equ	16312	;# 
   787   003FB9                     T0CON1          equ	16313	;# 
   788   003FBA                     LATA            equ	16314	;# 
   789   003FBB                     LATB            equ	16315	;# 
   790   003FBC                     LATC            equ	16316	;# 
   791   003FBD                     LATD            equ	16317	;# 
   792   003FBE                     LATE            equ	16318	;# 
   793   003FC2                     TRISA           equ	16322	;# 
   794   003FC3                     TRISB           equ	16323	;# 
   795   003FC4                     TRISC           equ	16324	;# 
   796   003FC5                     TRISD           equ	16325	;# 
   797   003FC6                     TRISE           equ	16326	;# 
   798   003FCA                     PORTA           equ	16330	;# 
   799   003FCB                     PORTB           equ	16331	;# 
   800   003FCC                     PORTC           equ	16332	;# 
   801   003FCD                     PORTD           equ	16333	;# 
   802   003FCE                     PORTE           equ	16334	;# 
   803   003FD2                     INTCON0         equ	16338	;# 
   804   003FD3                     INTCON1         equ	16339	;# 
   805   003FD4                     IVTLOCK         equ	16340	;# 
   806   003FD5                     IVTBASE         equ	16341	;# 
   807   003FD5                     IVTBASEL        equ	16341	;# 
   808   003FD6                     IVTBASEH        equ	16342	;# 
   809   003FD7                     IVTBASEU        equ	16343	;# 
   810   003FD8                     STATUS          equ	16344	;# 
   811   003FD9                     FSR2            equ	16345	;# 
   812   003FD9                     FSR2L           equ	16345	;# 
   813   003FDA                     FSR2H           equ	16346	;# 
   814   003FDB                     PLUSW2          equ	16347	;# 
   815   003FDC                     PREINC2         equ	16348	;# 
   816   003FDD                     POSTDEC2        equ	16349	;# 
   817   003FDE                     POSTINC2        equ	16350	;# 
   818   003FDF                     INDF2           equ	16351	;# 
   819   003FE0                     BSR             equ	16352	;# 
   820   003FE1                     FSR1            equ	16353	;# 
   821   003FE1                     FSR1L           equ	16353	;# 
   822   003FE2                     FSR1H           equ	16354	;# 
   823   003FE3                     PLUSW1          equ	16355	;# 
   824   003FE4                     PREINC1         equ	16356	;# 
   825   003FE5                     POSTDEC1        equ	16357	;# 
   826   003FE6                     POSTINC1        equ	16358	;# 
   827   003FE7                     INDF1           equ	16359	;# 
   828   003FE8                     WREG            equ	16360	;# 
   829   003FE9                     FSR0            equ	16361	;# 
   830   003FE9                     FSR0L           equ	16361	;# 
   831   003FEA                     FSR0H           equ	16362	;# 
   832   003FEB                     PLUSW0          equ	16363	;# 
   833   003FEC                     PREINC0         equ	16364	;# 
   834   003FED                     POSTDEC0        equ	16365	;# 
   835   003FEE                     POSTINC0        equ	16366	;# 
   836   003FEF                     INDF0           equ	16367	;# 
   837   003FF0                     PCON0           equ	16368	;# 
   838   003FF1                     PCON1           equ	16369	;# 
   839   003FF3                     PROD            equ	16371	;# 
   840   003FF3                     PRODL           equ	16371	;# 
   841   003FF4                     PRODH           equ	16372	;# 
   842   003FF5                     TABLAT          equ	16373	;# 
   843   003FF6                     TBLPTR          equ	16374	;# 
   844   003FF6                     TBLPTRL         equ	16374	;# 
   845   003FF7                     TBLPTRH         equ	16375	;# 
   846   003FF8                     TBLPTRU         equ	16376	;# 
   847   003FF9                     PCLAT           equ	16377	;# 
   848   003FF9                     PCL             equ	16377	;# 
   849   003FFA                     PCLATH          equ	16378	;# 
   850   003FFB                     PCLATU          equ	16379	;# 
   851   003FFC                     STKPTR          equ	16380	;# 
   852   003FFD                     TOS             equ	16381	;# 
   853   003FFD                     TOSL            equ	16381	;# 
   854   003FFE                     TOSH            equ	16382	;# 
   855   003FFF                     TOSU            equ	16383	;# 
   856   003990                     _PIE0bits       set	14736
   857   0039A0                     _PIR0bits       set	14752
   858   003A40                     _ANSELAbits     set	14912
   859   003A66                     _IOCCNbits      set	14950
   860   003A65                     _IOCCPbits      set	14949
   861   003A61                     _WPUCbits       set	14945
   862   003A60                     _ANSELCbits     set	14944
   863   003A67                     _IOCCFbits      set	14951
   864   003EF4                     _ADACQH         set	16116
   865   003EF3                     _ADACQL         set	16115
   866   003EF7                     _ADPREH         set	16119
   867   003EF6                     _ADPREL         set	16118
   868   003EFF                     _ADCLK          set	16127
   869   003EF1                     _ADPCH          set	16113
   870   003EEF                     _ADRESL         set	16111
   871   003EF0                     _ADRESH         set	16112
   872   003EF8                     _ADCON0bits     set	16120
   873   003FC2                     _TRISAbits      set	16322
   874   003FBB                     _LATB           set	16315
   875   003FC5                     _TRISD          set	16325
   876   003FC3                     _TRISB          set	16323
   877   003FD5                     _IVTBASEL       set	16341
   878   003FD6                     _IVTBASEH       set	16342
   879   003FD7                     _IVTBASEU       set	16343
   880   003FD2                     _INTCON0bits    set	16338
   881   003FC4                     _TRISCbits      set	16324
   882   003FBC                     _LATCbits       set	16316
   883   01FDE9                     _LATD1          set	130537
   884   01FDE8                     _LATD0          set	130536
   885                           
   886                           	psect	smallconst
   887   002000                     __psmallconst:
   888                           	callstack 0
   889   002000  00                 	db	0
   890   002001                     STR_1:
   891   002001  54                 	db	84	;'T'
   892   002002  68                 	db	104	;'h'
   893   002003  65                 	db	101	;'e'
   894   002004  20                 	db	32
   895   002005  49                 	db	73	;'I'
   896   002006  6E                 	db	110	;'n'
   897   002007  70                 	db	112	;'p'
   898   002008  75                 	db	117	;'u'
   899   002009  74                 	db	116	;'t'
   900   00200A  20                 	db	32
   901   00200B  4C                 	db	76	;'L'
   902   00200C  69                 	db	105	;'i'
   903   00200D  67                 	db	103	;'g'
   904   00200E  68                 	db	104	;'h'
   905   00200F  74                 	db	116	;'t'
   906   002010  3A                 	db	58	;':'
   907   002011  00                 	db	0
   908   002012                     STR_3:
   909   002012  20                 	db	32
   910   002013  4C                 	db	76	;'L'
   911   002014  55                 	db	85	;'U'
   912   002015  58                 	db	88	;'X'
   913   002016  20                 	db	32
   914   002017  20                 	db	32
   915   002018  20                 	db	32
   916   002019  20                 	db	32
   917   00201A  00                 	db	0
   918   00201B                     STR_2:
   919   00201B  25                 	db	37
   920   00201C  64                 	db	100	;'d'
   921   00201D  00                 	db	0
   922   00201E  00                 	db	0	; dummy byte at the end
   923   002000                     __smallconst    set	__psmallconst
   924   002000                     __mediumconst   set	__psmallconst
   925   000002                     __activetblptr  equ	2
   926                           
   927                           ; #config settings
   928                           
   929                           	psect	cinit
   930   00542E                     __pcinit:
   931                           	callstack 0
   932   00542E                     start_initialization:
   933                           	callstack 0
   934   00542E                     __initialization:
   935                           	callstack 0
   936                           
   937                           ; Clear objects allocated to BANK0 (32 bytes)
   938   00542E  EE00  F060         	lfsr	0,__pbssBANK0
   939   005432  0E20               	movlw	32
   940   005434                     clear_0:
   941   005434  6AEE               	clrf	postinc0,c
   942   005436  06E8               	decf	wreg,f,c
   943   005438  E1FD               	bnz	clear_0
   944                           
   945                           ; Clear objects allocated to COMRAM (21 bytes)
   946   00543A  EE00  F046         	lfsr	0,__pbssCOMRAM
   947   00543E  0E15               	movlw	21
   948   005440                     clear_1:
   949   005440  6AEE               	clrf	postinc0,c
   950   005442  06E8               	decf	wreg,f,c
   951   005444  E1FD               	bnz	clear_1
   952                           
   953                           ;
   954                           ; Setup IVTBASE
   955                           ;
   956   003FD5                     IVTBASEL        equ	16341
   957   003FD6                     IVTBASEH        equ	16342
   958   003FD7                     IVTBASEU        equ	16343
   959   005446  0E08               	movlw	(ivt0x4008_base shr 0)& (0+255)
   960   005448  6ED5               	movwf	213,c
   961   00544A  0E40               	movlw	(ivt0x4008_base shr (0+8))& (0+255)
   962   00544C  6ED6               	movwf	214,c
   963   00544E  0E00               	movlw	(ivt0x4008_base shr (0+16))& (0+255)
   964   005450  6ED7               	movwf	215,c
   965   005452                     end_of_initialization:
   966                           	callstack 0
   967   005452                     __end_of__initialization:
   968                           	callstack 0
   969   005452  0E00               	movlw	low (__Lmediumconst shr (0+16))
   970   005454  6EF8               	movwf	tblptru,c
   971   005456  0100               	movlb	0
   972   005458  EF95  F026         	goto	_main	;jump to C main() function
   973                           
   974                           	psect	bssCOMRAM
   975   000046                     __pbssCOMRAM:
   976                           	callstack 0
   977   000046                     _width:
   978                           	callstack 0
   979   000046                     	ds	2
   980   000048                     _prec:
   981                           	callstack 0
   982   000048                     	ds	2
   983   00004A                     _digital:
   984                           	callstack 0
   985   00004A                     	ds	2
   986   00004C                     _flags:
   987                           	callstack 0
   988   00004C                     	ds	1
   989   00004D                     _data:
   990                           	callstack 0
   991   00004D                     	ds	10
   992   000057                     _voltage:
   993                           	callstack 0
   994   000057                     	ds	4
   995                           
   996                           	psect	bssBANK0
   997   000060                     __pbssBANK0:
   998                           	callstack 0
   999   000060                     _dbuf:
  1000                           	callstack 0
  1001   000060                     	ds	32
  1002                           
  1003                           	psect	cstackBANK0
  1004   000080                     __pcstackBANK0:
  1005                           	callstack 0
  1006   000080                     ??_main:
  1007                           
  1008                           ; 1 bytes @ 0x0
  1009   000080                     	ds	2
  1010   000082                     main@lux:
  1011                           	callstack 0
  1012                           
  1013                           ; 2 bytes @ 0x2
  1014   000082                     	ds	2
  1015                           
  1016                           	psect	cstackCOMRAM
  1017   000001                     __pcstackCOMRAM:
  1018                           	callstack 0
  1019   000001                     ??_IOC_ISR:
  1020                           
  1021                           ; 1 bytes @ 0x0
  1022   000001                     	ds	2
  1023   000003                     IOC_ISR@i:
  1024                           	callstack 0
  1025                           
  1026                           ; 2 bytes @ 0x2
  1027   000003                     	ds	2
  1028   000005                     ?___awdiv:
  1029                           	callstack 0
  1030   000005                     ?___awmod:
  1031                           	callstack 0
  1032   000005                     ?___xxtofl:
  1033                           	callstack 0
  1034   000005                     strcat@dest:
  1035                           	callstack 0
  1036   000005                     MSdelay@val:
  1037                           	callstack 0
  1038   000005                     ___awdiv@dividend:
  1039                           	callstack 0
  1040   000005                     ___awmod@dividend:
  1041                           	callstack 0
  1042   000005                     fputc@c:
  1043                           	callstack 0
  1044   000005                     ___xxtofl@val:
  1045                           	callstack 0
  1046   000005                     
  1047                           ; 1 bytes @ 0x4
  1048   000005                     	ds	1
  1049   000006                     strcat@src:
  1050                           	callstack 0
  1051                           
  1052                           ; 1 bytes @ 0x5
  1053   000006                     	ds	1
  1054   000007                     fputc@fp:
  1055                           	callstack 0
  1056   000007                     MSdelay@i:
  1057                           	callstack 0
  1058   000007                     ___awdiv@divisor:
  1059                           	callstack 0
  1060   000007                     ___awmod@divisor:
  1061                           	callstack 0
  1062   000007                     strcat@i:
  1063                           	callstack 0
  1064   000007                     
  1065                           ; 1 bytes @ 0x6
  1066   000007                     	ds	1
  1067   000008                     ??_fputc:
  1068                           
  1069                           ; 1 bytes @ 0x7
  1070   000008                     	ds	1
  1071   000009                     ___awdiv@counter:
  1072                           	callstack 0
  1073   000009                     ___awmod@counter:
  1074                           	callstack 0
  1075   000009                     MSdelay@j:
  1076                           	callstack 0
  1077   000009                     ??___xxtofl:
  1078                           
  1079                           ; 1 bytes @ 0x8
  1080   000009                     	ds	1
  1081   00000A                     ___awdiv@sign:
  1082                           	callstack 0
  1083   00000A                     ___awmod@sign:
  1084                           	callstack 0
  1085                           
  1086                           ; 1 bytes @ 0x9
  1087   00000A                     	ds	1
  1088   00000B                     ?_abs:
  1089                           	callstack 0
  1090   00000B                     LCD_Command@cmd:
  1091                           	callstack 0
  1092   00000B                     LCD_Char@dat:
  1093                           	callstack 0
  1094   00000B                     ___awdiv@quotient:
  1095                           	callstack 0
  1096   00000B                     abs@a:
  1097                           	callstack 0
  1098   00000B                     
  1099                           ; 1 bytes @ 0xA
  1100   00000B                     	ds	1
  1101   00000C                     LCD_String@msg:
  1102                           	callstack 0
  1103   00000C                     
  1104                           ; 1 bytes @ 0xB
  1105   00000C                     	ds	1
  1106   00000D                     ___xxtofl@sign:
  1107                           	callstack 0
  1108   00000D                     ??_abs:
  1109                           
  1110                           ; 1 bytes @ 0xC
  1111   00000D                     	ds	1
  1112   00000E                     LCD_String_xy@pos:
  1113                           	callstack 0
  1114   00000E                     ___xxtofl@exp:
  1115                           	callstack 0
  1116   00000E                     
  1117                           ; 1 bytes @ 0xD
  1118   00000E                     	ds	1
  1119   00000F                     vfpfcnvrt@fp:
  1120                           	callstack 0
  1121   00000F                     LCD_String_xy@msg:
  1122                           	callstack 0
  1123   00000F                     ___xxtofl@arg:
  1124                           	callstack 0
  1125                           
  1126                           ; 4 bytes @ 0xE
  1127   00000F                     	ds	1
  1128   000010                     vfpfcnvrt@fmt:
  1129                           	callstack 0
  1130                           
  1131                           ; 1 bytes @ 0xF
  1132   000010                     	ds	1
  1133   000011                     LCD_String_xy@row:
  1134                           	callstack 0
  1135   000011                     vfpfcnvrt@ap:
  1136                           	callstack 0
  1137   000011                     
  1138                           ; 1 bytes @ 0x10
  1139   000011                     	ds	1
  1140   000012                     LCD_String_xy@location:
  1141                           	callstack 0
  1142   000012                     ??_vfpfcnvrt:
  1143                           
  1144                           ; 1 bytes @ 0x11
  1145   000012                     	ds	1
  1146   000013                     ?___flmul:
  1147                           	callstack 0
  1148   000013                     vfpfcnvrt@done:
  1149                           	callstack 0
  1150   000013                     ___flmul@b:
  1151                           	callstack 0
  1152                           
  1153                           ; 4 bytes @ 0x12
  1154   000013                     	ds	1
  1155   000014                     vfpfcnvrt@cp:
  1156                           	callstack 0
  1157                           
  1158                           ; 1 bytes @ 0x13
  1159   000014                     	ds	1
  1160   000015                     vfpfcnvrt@convarg:
  1161                           	callstack 0
  1162                           
  1163                           ; 4 bytes @ 0x14
  1164   000015                     	ds	2
  1165   000017                     ___flmul@a:
  1166                           	callstack 0
  1167                           
  1168                           ; 4 bytes @ 0x16
  1169   000017                     	ds	2
  1170   000019                     vfpfcnvrt@c:
  1171                           	callstack 0
  1172                           
  1173                           ; 1 bytes @ 0x18
  1174   000019                     	ds	1
  1175   00001A                     ?_vfprintf:
  1176                           	callstack 0
  1177   00001A                     vfprintf@fp:
  1178                           	callstack 0
  1179                           
  1180                           ; 1 bytes @ 0x19
  1181   00001A                     	ds	1
  1182   00001B                     vfprintf@fmt:
  1183                           	callstack 0
  1184   00001B                     ??___flmul:
  1185                           
  1186                           ; 1 bytes @ 0x1A
  1187   00001B                     	ds	1
  1188   00001C                     vfprintf@ap:
  1189                           	callstack 0
  1190                           
  1191                           ; 1 bytes @ 0x1B
  1192   00001C                     	ds	1
  1193   00001D                     vfprintf@cfmt:
  1194                           	callstack 0
  1195   00001D                     
  1196                           ; 1 bytes @ 0x1C
  1197   00001D                     	ds	1
  1198   00001E                     ?_sprintf:
  1199                           	callstack 0
  1200   00001E                     sprintf@s:
  1201                           	callstack 0
  1202                           
  1203                           ; 1 bytes @ 0x1D
  1204   00001E                     	ds	1
  1205   00001F                     ___flmul@sign:
  1206                           	callstack 0
  1207   00001F                     sprintf@fmt:
  1208                           	callstack 0
  1209                           
  1210                           ; 1 bytes @ 0x1E
  1211   00001F                     	ds	1
  1212   000020                     ___flmul@aexp:
  1213                           	callstack 0
  1214                           
  1215                           ; 1 bytes @ 0x1F
  1216   000020                     	ds	1
  1217   000021                     ___flmul@grs:
  1218                           	callstack 0
  1219                           
  1220                           ; 4 bytes @ 0x20
  1221   000021                     	ds	1
  1222   000022                     sprintf@ap:
  1223                           	callstack 0
  1224   000022                     
  1225                           ; 1 bytes @ 0x21
  1226   000022                     	ds	1
  1227   000023                     sprintf@f:
  1228                           	callstack 0
  1229                           
  1230                           ; 11 bytes @ 0x22
  1231   000023                     	ds	2
  1232   000025                     ___flmul@bexp:
  1233                           	callstack 0
  1234                           
  1235                           ; 1 bytes @ 0x24
  1236   000025                     	ds	1
  1237   000026                     ___flmul@prod:
  1238                           	callstack 0
  1239                           
  1240                           ; 4 bytes @ 0x25
  1241   000026                     	ds	4
  1242   00002A                     ___flmul@temp:
  1243                           	callstack 0
  1244                           
  1245                           ; 2 bytes @ 0x29
  1246   00002A                     	ds	2
  1247   00002C                     ?___fladd:
  1248                           	callstack 0
  1249   00002C                     ___fladd@b:
  1250                           	callstack 0
  1251                           
  1252                           ; 4 bytes @ 0x2B
  1253   00002C                     	ds	4
  1254   000030                     ___fladd@a:
  1255                           	callstack 0
  1256                           
  1257                           ; 4 bytes @ 0x2F
  1258   000030                     	ds	4
  1259   000034                     ??___fladd:
  1260                           
  1261                           ; 1 bytes @ 0x33
  1262   000034                     	ds	4
  1263   000038                     ___fladd@signs:
  1264                           	callstack 0
  1265                           
  1266                           ; 1 bytes @ 0x37
  1267   000038                     	ds	1
  1268   000039                     ___fladd@aexp:
  1269                           	callstack 0
  1270                           
  1271                           ; 1 bytes @ 0x38
  1272   000039                     	ds	1
  1273   00003A                     ___fladd@bexp:
  1274                           	callstack 0
  1275                           
  1276                           ; 1 bytes @ 0x39
  1277   00003A                     	ds	1
  1278   00003B                     ___fladd@grs:
  1279                           	callstack 0
  1280                           
  1281                           ; 1 bytes @ 0x3A
  1282   00003B                     	ds	1
  1283   00003C                     ?___fltol:
  1284                           	callstack 0
  1285   00003C                     ___fltol@f1:
  1286                           	callstack 0
  1287                           
  1288                           ; 4 bytes @ 0x3B
  1289   00003C                     	ds	4
  1290   000040                     ??___fltol:
  1291                           
  1292                           ; 1 bytes @ 0x3F
  1293   000040                     	ds	4
  1294   000044                     ___fltol@sign1:
  1295                           	callstack 0
  1296                           
  1297                           ; 1 bytes @ 0x43
  1298   000044                     	ds	1
  1299   000045                     ___fltol@exp1:
  1300                           	callstack 0
  1301                           
  1302                           ; 1 bytes @ 0x44
  1303   000045                     	ds	1
  1304                           
  1305 ;;
  1306 ;;Main: autosize = 0, tempsize = 2, incstack = 0, save=0
  1307 ;;
  1308 ;; *************** function _main *****************
  1309 ;; Defined at:
  1310 ;;		line 155 in file "ACD_LCD_main.c"
  1311 ;; Parameters:    Size  Location     Type
  1312 ;;		None
  1313 ;; Auto vars:     Size  Location     Type
  1314 ;;  lux             2    2[BANK0 ] int 
  1315 ;; Return value:  Size  Location     Type
  1316 ;;                  1    wreg      void 
  1317 ;; Registers used:
  1318 ;;		wreg, fsr1l, fsr1h, fsr2l, fsr2h, status,2, status,0, tblptrl, tblptrh, tblptru, prodl, prodh, cstack
  1319 ;; Tracked objects:
  1320 ;;		On entry : 0/0
  1321 ;;		On exit  : 0/0
  1322 ;;		Unchanged: 0/0
  1323 ;; Data sizes:     COMRAM   BANK0   BANK1   BANK2   BANK3   BANK4   BANK5   BANK6   BANK7   BANK8   BANK9  BANK10  BANK1
      +1  BANK12  BANK13  BANK14  BANK15  BANK16  BANK17  BANK18  BANK19  BANK20  BANK21  BANK22  BANK23  BANK24  BANK25  BANK2
      +6  BANK27  BANK28  BANK29  BANK30  BANK31
  1324 ;;      Params:         0       0       0       0       0       0       0       0       0       0       0       0       
      +0       0       0       0       0       0       0       0       0       0       0       0       0       0       0       
      +0       0       0       0       0       0
  1325 ;;      Locals:         0       2       0       0       0       0       0       0       0       0       0       0       
      +0       0       0       0       0       0       0       0       0       0       0       0       0       0       0       
      +0       0       0       0       0       0
  1326 ;;      Temps:          0       2       0       0       0       0       0       0       0       0       0       0       
      +0       0       0       0       0       0       0       0       0       0       0       0       0       0       0       
      +0       0       0       0       0       0
  1327 ;;      Totals:         0       4       0       0       0       0       0       0       0       0       0       0       
      +0       0       0       0       0       0       0       0       0       0       0       0       0       0       0       
      +0       0       0       0       0       0
  1328 ;;Total ram usage:        4 bytes
  1329 ;; Hardware stack levels required when called: 6
  1330 ;; This function calls:
  1331 ;;		_ADC_Init
  1332 ;;		_IOCC2_Init
  1333 ;;		_LCD_Init
  1334 ;;		_LCD_String_xy
  1335 ;;		___fladd
  1336 ;;		___flmul
  1337 ;;		___fltol
  1338 ;;		___xxtofl
  1339 ;;		_sprintf
  1340 ;;		_strcat
  1341 ;; This function is called by:
  1342 ;;		Startup code after reset
  1343 ;; This function uses a non-reentrant model
  1344 ;;
  1345                           
  1346                           	psect	text0
  1347   004D2A                     __ptext0:
  1348                           	callstack 0
  1349   004D2A                     _main:
  1350                           	callstack 25
  1351   004D2A                     
  1352                           ;ACD_LCD_main.c: 158:     ADC_Init();
  1353   004D2A  EC43  F02A         	call	_ADC_Init	;wreg free
  1354   004D2E                     
  1355                           ;ACD_LCD_main.c: 159:     LCD_Init();
  1356   004D2E  EC2E  F02A         	call	_LCD_Init	;wreg free
  1357   004D32                     
  1358                           ;ACD_LCD_main.c: 160:     IOCC2_Init();
  1359   004D32  EC57  F02A         	call	_IOCC2_Init	;wreg free
  1360   004D36                     
  1361                           ;ACD_LCD_main.c: 162:     TRISCbits.TRISC3 = 0;
  1362   004D36  96C4               	bcf	196,3,c	;volatile
  1363   004D38                     
  1364                           ;ACD_LCD_main.c: 163:     LATCbits.LATC3 = 0;
  1365   004D38  96BC               	bcf	188,3,c	;volatile
  1366   004D3A                     
  1367                           ;ACD_LCD_main.c: 167:     LCD_String_xy(1, 0, "The Input Light:");
  1368   004D3A  0E00               	movlw	0
  1369   004D3C  6E0E               	movwf	LCD_String_xy@pos^0,c
  1370   004D3E  0E01               	movlw	low STR_1
  1371   004D40  6E0F               	movwf	LCD_String_xy@msg^0,c
  1372   004D42  500F               	movf	LCD_String_xy@msg^0,w,c
  1373   004D44  A4D8               	btfss	status,2,c
  1374   004D46  0E20               	movlw	high __smallconst
  1375   004D48  6E10               	movwf	(LCD_String_xy@msg+1)^0,c
  1376   004D4A  0E01               	movlw	1
  1377   004D4C  ECC3  F029         	call	_LCD_String_xy
  1378   004D50                     l3037:
  1379                           
  1380                           ;ACD_LCD_main.c: 170:     {;ACD_LCD_main.c: 171:         ADCON0bits.GO = 1;
  1381   004D50  013E               	movlb	62	; () banked
  1382   004D52  81F8               	bsf	248,0,b	;volatile
  1383   004D54                     l98:
  1384                           
  1385                           ; BSR set to: 62
  1386   004D54  B1F8               	btfsc	248,0,b	;volatile
  1387   004D56  EFAF  F026         	goto	u3401
  1388   004D5A  EFB1  F026         	goto	u3400
  1389   004D5E                     u3401:
  1390   004D5E  EFAA  F026         	goto	l98
  1391   004D62                     u3400:
  1392   004D62                     
  1393                           ; BSR set to: 62
  1394                           ;ACD_LCD_main.c: 173:         digital = (ADRESH*256) | (ADRESL);
  1395   004D62  51EF               	movf	239,w,b	;volatile
  1396   004D64  006F FBC0  F080    	movff	16112,??_main	;volatile
  1397   004D6A  0100               	movlb	0	; () banked
  1398   004D6C  6B81               	clrf	(??_main+1)& (0+255),b
  1399   004D6E  C080  F081         	movff	??_main,??_main+1
  1400   004D72  6B80               	clrf	??_main& (0+255),b
  1401   004D74  1180               	iorwf	??_main& (0+255),w,b
  1402   004D76  6E4A               	movwf	_digital^0,c
  1403   004D78  5181               	movf	(??_main+1)& (0+255),w,b
  1404   004D7A  6E4B               	movwf	(_digital+1)^0,c
  1405   004D7C                     
  1406                           ; BSR set to: 0
  1407                           ;ACD_LCD_main.c: 174:         voltage = digital * ((float)5.0 / 4096.0);
  1408   004D7C  C04A  F005         	movff	_digital,___xxtofl@val
  1409   004D80  C04B  F006         	movff	_digital+1,___xxtofl@val+1
  1410   004D84  0E00               	movlw	0
  1411   004D86  BE06               	btfsc	(___xxtofl@val+1)^0,7,c
  1412   004D88  0EFF               	movlw	-1
  1413   004D8A  6E07               	movwf	(___xxtofl@val+2)^0,c
  1414   004D8C  6E08               	movwf	(___xxtofl@val+3)^0,c
  1415   004D8E  0E01               	movlw	1
  1416   004D90  ECBB  F025         	call	___xxtofl
  1417   004D94  C005  F013         	movff	?___xxtofl,___flmul@b
  1418   004D98  C006  F014         	movff	?___xxtofl+1,___flmul@b+1
  1419   004D9C  C007  F015         	movff	?___xxtofl+2,___flmul@b+2
  1420   004DA0  C008  F016         	movff	?___xxtofl+3,___flmul@b+3
  1421   004DA4  0E00               	movlw	0
  1422   004DA6  6E17               	movwf	___flmul@a^0,c
  1423   004DA8  0E00               	movlw	0
  1424   004DAA  6E18               	movwf	(___flmul@a+1)^0,c
  1425   004DAC  0EA0               	movlw	160
  1426   004DAE  6E19               	movwf	(___flmul@a+2)^0,c
  1427   004DB0  0E3A               	movlw	58
  1428   004DB2  6E1A               	movwf	(___flmul@a+3)^0,c
  1429   004DB4  ECB4  F022         	call	___flmul	;wreg free
  1430   004DB8  C013  F057         	movff	?___flmul,_voltage
  1431   004DBC  C014  F058         	movff	?___flmul+1,_voltage+1
  1432   004DC0  C015  F059         	movff	?___flmul+2,_voltage+2
  1433   004DC4  C016  F05A         	movff	?___flmul+3,_voltage+3
  1434   004DC8                     
  1435                           ;ACD_LCD_main.c: 176:         int lux = (int)(85.19 * voltage + -135.33);
  1436   004DC8  0E7B               	movlw	123
  1437   004DCA  6E30               	movwf	___fladd@a^0,c
  1438   004DCC  0E54               	movlw	84
  1439   004DCE  6E31               	movwf	(___fladd@a+1)^0,c
  1440   004DD0  0E07               	movlw	7
  1441   004DD2  6E32               	movwf	(___fladd@a+2)^0,c
  1442   004DD4  0EC3               	movlw	195
  1443   004DD6  6E33               	movwf	(___fladd@a+3)^0,c
  1444   004DD8  0E48               	movlw	72
  1445   004DDA  6E17               	movwf	___flmul@a^0,c
  1446   004DDC  0E61               	movlw	97
  1447   004DDE  6E18               	movwf	(___flmul@a+1)^0,c
  1448   004DE0  0EAA               	movlw	170
  1449   004DE2  6E19               	movwf	(___flmul@a+2)^0,c
  1450   004DE4  0E42               	movlw	66
  1451   004DE6  6E1A               	movwf	(___flmul@a+3)^0,c
  1452   004DE8  C057  F013         	movff	_voltage,___flmul@b
  1453   004DEC  C058  F014         	movff	_voltage+1,___flmul@b+1
  1454   004DF0  C059  F015         	movff	_voltage+2,___flmul@b+2
  1455   004DF4  C05A  F016         	movff	_voltage+3,___flmul@b+3
  1456   004DF8  ECB4  F022         	call	___flmul	;wreg free
  1457   004DFC  C013  F02C         	movff	?___flmul,___fladd@b
  1458   004E00  C014  F02D         	movff	?___flmul+1,___fladd@b+1
  1459   004E04  C015  F02E         	movff	?___flmul+2,___fladd@b+2
  1460   004E08  C016  F02F         	movff	?___flmul+3,___fladd@b+3
  1461   004E0C  EC59  F020         	call	___fladd	;wreg free
  1462   004E10  C02C  F03C         	movff	?___fladd,___fltol@f1
  1463   004E14  C02D  F03D         	movff	?___fladd+1,___fltol@f1+1
  1464   004E18  C02E  F03E         	movff	?___fladd+2,___fltol@f1+2
  1465   004E1C  C02F  F03F         	movff	?___fladd+3,___fltol@f1+3
  1466   004E20  EC4B  F027         	call	___fltol	;wreg free
  1467   004E24  C03C  F082         	movff	?___fltol,main@lux
  1468   004E28  C03D  F083         	movff	?___fltol+1,main@lux+1
  1469                           
  1470                           ;ACD_LCD_main.c: 177:         if (lux < 0) lux =0;
  1471   004E2C  0100               	movlb	0	; () banked
  1472   004E2E  BF83               	btfsc	(main@lux+1)& (0+255),7,b
  1473   004E30  EF1E  F027         	goto	u3410
  1474   004E34  EF1C  F027         	goto	u3411
  1475   004E38                     u3411:
  1476   004E38  EF22  F027         	goto	l3047
  1477   004E3C                     u3410:
  1478   004E3C                     
  1479                           ; BSR set to: 0
  1480   004E3C  0E00               	movlw	0
  1481   004E3E  6F83               	movwf	(main@lux+1)& (0+255),b
  1482   004E40  0E00               	movlw	0
  1483   004E42  6F82               	movwf	main@lux& (0+255),b
  1484   004E44                     l3047:
  1485                           
  1486                           ; BSR set to: 0
  1487                           ;ACD_LCD_main.c: 181:         sprintf(data,"%d", lux);
  1488   004E44  0E4D               	movlw	low _data
  1489   004E46  6E1E               	movwf	sprintf@s^0,c
  1490   004E48  0E1B               	movlw	low STR_2
  1491   004E4A  6E1F               	movwf	sprintf@fmt^0,c
  1492   004E4C  C082  F020         	movff	main@lux,?_sprintf+2
  1493   004E50  C083  F021         	movff	main@lux+1,?_sprintf+3
  1494   004E54  ECE3  F029         	call	_sprintf	;wreg free
  1495   004E58                     
  1496                           ;ACD_LCD_main.c: 183:         strcat(data," LUX    ");
  1497   004E58  0E4D               	movlw	low _data
  1498   004E5A  6E05               	movwf	strcat@dest^0,c
  1499   004E5C  0E12               	movlw	low STR_3
  1500   004E5E  6E06               	movwf	strcat@src^0,c
  1501   004E60  EC4F  F029         	call	_strcat	;wreg free
  1502   004E64                     
  1503                           ;ACD_LCD_main.c: 184:         LCD_String_xy(2,4,data);
  1504   004E64  0E04               	movlw	4
  1505   004E66  6E0E               	movwf	LCD_String_xy@pos^0,c
  1506   004E68  0E4D               	movlw	low _data
  1507   004E6A  6E0F               	movwf	LCD_String_xy@msg^0,c
  1508   004E6C  6A10               	clrf	(LCD_String_xy@msg+1)^0,c
  1509   004E6E  0E02               	movlw	2
  1510   004E70  ECC3  F029         	call	_LCD_String_xy
  1511   004E74                     
  1512                           ;ACD_LCD_main.c: 187:         _delay((unsigned long)((500)*(4000000/4000.0)));
  1513   004E74  0E03               	movlw	3
  1514   004E76  0100               	movlb	0	; () banked
  1515   004E78  6F81               	movwf	(??_main+1)& (0+255),b
  1516   004E7A  0E8A               	movlw	138
  1517   004E7C  6F80               	movwf	??_main& (0+255),b
  1518   004E7E  0E55               	movlw	85
  1519   004E80                     u3427:
  1520   004E80  2EE8               	decfsz	wreg,f,c
  1521   004E82  D7FE               	bra	u3427
  1522   004E84  2F80               	decfsz	??_main& (0+255),f,b
  1523   004E86  D7FC               	bra	u3427
  1524   004E88  2F81               	decfsz	(??_main+1)& (0+255),f,b
  1525   004E8A  D7FA               	bra	u3427
  1526   004E8C  D000               	nop2	
  1527   004E8E  EFA8  F026         	goto	l3037
  1528   004E92  EF57  F020         	goto	start
  1529   004E96                     __end_of_main:
  1530                           	callstack 0
  1531                           
  1532 ;; *************** function _strcat *****************
  1533 ;; Defined at:
  1534 ;;		line 3 in file "C:\Program Files\Microchip\xc8\v3.00\pic\sources\c99\common\strcat.c"
  1535 ;; Parameters:    Size  Location     Type
  1536 ;;  dest            1    4[COMRAM] PTR unsigned char 
  1537 ;;		 -> data(10), 
  1538 ;;  src             1    5[COMRAM] PTR const unsigned char 
  1539 ;;		 -> STR_3(9), 
  1540 ;; Auto vars:     Size  Location     Type
  1541 ;;  i               2    6[COMRAM] unsigned int 
  1542 ;; Return value:  Size  Location     Type
  1543 ;;                  1    4[COMRAM] PTR unsigned char 
  1544 ;; Registers used:
  1545 ;;		wreg, fsr2l, fsr2h, status,2, status,0, tblptrl, tblptrh, tblptru
  1546 ;; Tracked objects:
  1547 ;;		On entry : 0/0
  1548 ;;		On exit  : 0/0
  1549 ;;		Unchanged: 0/0
  1550 ;; Data sizes:     COMRAM   BANK0   BANK1   BANK2   BANK3   BANK4   BANK5   BANK6   BANK7   BANK8   BANK9  BANK10  BANK1
      +1  BANK12  BANK13  BANK14  BANK15  BANK16  BANK17  BANK18  BANK19  BANK20  BANK21  BANK22  BANK23  BANK24  BANK25  BANK2
      +6  BANK27  BANK28  BANK29  BANK30  BANK31
  1551 ;;      Params:         2       0       0       0       0       0       0       0       0       0       0       0       
      +0       0       0       0       0       0       0       0       0       0       0       0       0       0       0       
      +0       0       0       0       0       0
  1552 ;;      Locals:         2       0       0       0       0       0       0       0       0       0       0       0       
      +0       0       0       0       0       0       0       0       0       0       0       0       0       0       0       
      +0       0       0       0       0       0
  1553 ;;      Temps:          0       0       0       0       0       0       0       0       0       0       0       0       
      +0       0       0       0       0       0       0       0       0       0       0       0       0       0       0       
      +0       0       0       0       0       0
  1554 ;;      Totals:         4       0       0       0       0       0       0       0       0       0       0       0       
      +0       0       0       0       0       0       0       0       0       0       0       0       0       0       0       
      +0       0       0       0       0       0
  1555 ;;Total ram usage:        4 bytes
  1556 ;; Hardware stack levels used: 1
  1557 ;; Hardware stack levels required when called: 1
  1558 ;; This function calls:
  1559 ;;		Nothing
  1560 ;; This function is called by:
  1561 ;;		_main
  1562 ;; This function uses a non-reentrant model
  1563 ;;
  1564                           
  1565                           	psect	text1
  1566   00529E                     __ptext1:
  1567                           	callstack 0
  1568   00529E                     _strcat:
  1569                           	callstack 29
  1570   00529E  0E00               	movlw	0
  1571   0052A0  6E08               	movwf	(strcat@i+1)^0,c
  1572   0052A2  0E00               	movlw	0
  1573   0052A4  6E07               	movwf	strcat@i^0,c
  1574   0052A6  EF57  F029         	goto	l2607
  1575   0052AA                     l2605:
  1576   0052AA  4A07               	infsnz	strcat@i^0,f,c
  1577   0052AC  2A08               	incf	(strcat@i+1)^0,f,c
  1578   0052AE                     l2607:
  1579   0052AE  5005               	movf	strcat@dest^0,w,c
  1580   0052B0  2407               	addwf	strcat@i^0,w,c
  1581   0052B2  6ED9               	movwf	fsr2l,c
  1582   0052B4  6ADA               	clrf	fsr2h,c
  1583   0052B6  50DF               	movf	indf2,w,c
  1584   0052B8  A4D8               	btfss	status,2,c
  1585   0052BA  EF61  F029         	goto	u2631
  1586   0052BE  EF63  F029         	goto	u2630
  1587   0052C2                     u2631:
  1588   0052C2  EF55  F029         	goto	l2605
  1589   0052C6                     u2630:
  1590   0052C6  EF68  F029         	goto	l2611
  1591   0052CA                     l2609:
  1592   0052CA  4A07               	infsnz	strcat@i^0,f,c
  1593   0052CC  2A08               	incf	(strcat@i+1)^0,f,c
  1594   0052CE  2A06               	incf	strcat@src^0,f,c
  1595   0052D0                     l2611:
  1596   0052D0  0060  F01B  FFF6   	movff	strcat@src,tblptrl
  1597   0052D6                     	if	1	;There is more than 1 active tblptr byte
  1598   0052D6  0E20               	movlw	high __smallconst
  1599   0052D8  6EF7               	movwf	tblptrh,c
  1600   0052DA                     	endif
  1601   0052DA                     	if	0	;tblptru may be non-zero
  1602   0052DA                     	endif
  1603   0052DA                     	if	0	;tblptru may be non-zero
  1604   0052DA                     	endif
  1605   0052DA  5005               	movf	strcat@dest^0,w,c
  1606   0052DC  2407               	addwf	strcat@i^0,w,c
  1607   0052DE  6ED9               	movwf	fsr2l,c
  1608   0052E0  6ADA               	clrf	fsr2h,c
  1609   0052E2  0008               	tblrd		*
  1610   0052E4  006F FFD7 FFDF     	movff	tablat,indf2
  1611   0052EA  50DF               	movf	indf2,w,c
  1612   0052EC  A4D8               	btfss	status,2,c
  1613   0052EE  EF7B  F029         	goto	u2641
  1614   0052F2  EF7D  F029         	goto	u2640
  1615   0052F6                     u2641:
  1616   0052F6  EF65  F029         	goto	l2609
  1617   0052FA                     u2640:
  1618   0052FA  0012               	return		;funcret
  1619   0052FC                     __end_of_strcat:
  1620                           	callstack 0
  1621                           
  1622 ;; *************** function _sprintf *****************
  1623 ;; Defined at:
  1624 ;;		line 9 in file "C:\Program Files\Microchip\xc8\v3.00\pic\sources\c99\common\nf_sprintf.c"
  1625 ;; Parameters:    Size  Location     Type
  1626 ;;  s               1   29[COMRAM] PTR unsigned char 
  1627 ;;		 -> data(10), 
  1628 ;;  fmt             1   30[COMRAM] PTR const unsigned char 
  1629 ;;		 -> STR_2(3), 
  1630 ;; Auto vars:     Size  Location     Type
  1631 ;;  f              11   34[COMRAM] struct _IO_FILE
  1632 ;;  ret             2    0        int 
  1633 ;;  ap              1   33[COMRAM] PTR void [1]
  1634 ;;		 -> ?_sprintf(2), 
  1635 ;; Return value:  Size  Location     Type
  1636 ;;                  2   29[COMRAM] int 
  1637 ;; Registers used:
  1638 ;;		wreg, fsr1l, fsr1h, fsr2l, fsr2h, status,2, status,0, tblptrl, tblptrh, tblptru, cstack
  1639 ;; Tracked objects:
  1640 ;;		On entry : 0/0
  1641 ;;		On exit  : 0/0
  1642 ;;		Unchanged: 0/0
  1643 ;; Data sizes:     COMRAM   BANK0   BANK1   BANK2   BANK3   BANK4   BANK5   BANK6   BANK7   BANK8   BANK9  BANK10  BANK1
      +1  BANK12  BANK13  BANK14  BANK15  BANK16  BANK17  BANK18  BANK19  BANK20  BANK21  BANK22  BANK23  BANK24  BANK25  BANK2
      +6  BANK27  BANK28  BANK29  BANK30  BANK31
  1644 ;;      Params:         4       0       0       0       0       0       0       0       0       0       0       0       
      +0       0       0       0       0       0       0       0       0       0       0       0       0       0       0       
      +0       0       0       0       0       0
  1645 ;;      Locals:        12       0       0       0       0       0       0       0       0       0       0       0       
      +0       0       0       0       0       0       0       0       0       0       0       0       0       0       0       
      +0       0       0       0       0       0
  1646 ;;      Temps:          0       0       0       0       0       0       0       0       0       0       0       0       
      +0       0       0       0       0       0       0       0       0       0       0       0       0       0       0       
      +0       0       0       0       0       0
  1647 ;;      Totals:        16       0       0       0       0       0       0       0       0       0       0       0       
      +0       0       0       0       0       0       0       0       0       0       0       0       0       0       0       
      +0       0       0       0       0       0
  1648 ;;Total ram usage:       16 bytes
  1649 ;; Hardware stack levels used: 1
  1650 ;; Hardware stack levels required when called: 5
  1651 ;; This function calls:
  1652 ;;		_vfprintf
  1653 ;; This function is called by:
  1654 ;;		_main
  1655 ;; This function uses a non-reentrant model
  1656 ;;
  1657                           
  1658                           	psect	text2
  1659   0053C6                     __ptext2:
  1660                           	callstack 0
  1661   0053C6                     _sprintf:
  1662                           	callstack 25
  1663   0053C6  0E20               	movlw	low (?_sprintf+2)
  1664   0053C8  6E22               	movwf	sprintf@ap^0,c
  1665   0053CA  C01E  F023         	movff	sprintf@s,sprintf@f
  1666   0053CE  0E00               	movlw	0
  1667   0053D0  6E26               	movwf	(sprintf@f+3)^0,c
  1668   0053D2  0E00               	movlw	0
  1669   0053D4  6E25               	movwf	(sprintf@f+2)^0,c
  1670   0053D6  0E00               	movlw	0
  1671   0053D8  6E2D               	movwf	(sprintf@f+10)^0,c
  1672   0053DA  0E00               	movlw	0
  1673   0053DC  6E2C               	movwf	(sprintf@f+9)^0,c
  1674   0053DE  0E23               	movlw	low sprintf@f
  1675   0053E0  6E1A               	movwf	vfprintf@fp^0,c
  1676   0053E2  C01F  F01B         	movff	sprintf@fmt,vfprintf@fmt
  1677   0053E6  0E22               	movlw	low sprintf@ap
  1678   0053E8  6E1C               	movwf	vfprintf@ap^0,c
  1679   0053EA  ECA3  F029         	call	_vfprintf	;wreg free
  1680   0053EE  501E               	movf	sprintf@s^0,w,c
  1681   0053F0  2425               	addwf	(sprintf@f+2)^0,w,c
  1682   0053F2  6ED9               	movwf	fsr2l,c
  1683   0053F4  6ADA               	clrf	fsr2h,c
  1684   0053F6  6ADF               	clrf	indf2,c
  1685   0053F8  0012               	return		;funcret
  1686   0053FA                     __end_of_sprintf:
  1687                           	callstack 0
  1688                           
  1689 ;; *************** function _vfprintf *****************
  1690 ;; Defined at:
  1691 ;;		line 1817 in file "C:\Program Files\Microchip\xc8\v3.00\pic\sources\c99\common\doprnt.c"
  1692 ;; Parameters:    Size  Location     Type
  1693 ;;  fp              1   25[COMRAM] PTR struct _IO_FILE
  1694 ;;		 -> sprintf@f(11), 
  1695 ;;  fmt             1   26[COMRAM] PTR const unsigned char 
  1696 ;;		 -> STR_2(3), 
  1697 ;;  ap              1   27[COMRAM] PTR PTR void 
  1698 ;;		 -> sprintf@ap(1), 
  1699 ;; Auto vars:     Size  Location     Type
  1700 ;;  cfmt            1   28[COMRAM] PTR unsigned char 
  1701 ;;		 -> STR_2(3), 
  1702 ;; Return value:  Size  Location     Type
  1703 ;;                  2   25[COMRAM] int 
  1704 ;; Registers used:
  1705 ;;		wreg, fsr1l, fsr1h, fsr2l, fsr2h, status,2, status,0, tblptrl, tblptrh, tblptru, cstack
  1706 ;; Tracked objects:
  1707 ;;		On entry : 0/0
  1708 ;;		On exit  : 0/0
  1709 ;;		Unchanged: 0/0
  1710 ;; Data sizes:     COMRAM   BANK0   BANK1   BANK2   BANK3   BANK4   BANK5   BANK6   BANK7   BANK8   BANK9  BANK10  BANK1
      +1  BANK12  BANK13  BANK14  BANK15  BANK16  BANK17  BANK18  BANK19  BANK20  BANK21  BANK22  BANK23  BANK24  BANK25  BANK2
      +6  BANK27  BANK28  BANK29  BANK30  BANK31
  1711 ;;      Params:         3       0       0       0       0       0       0       0       0       0       0       0       
      +0       0       0       0       0       0       0       0       0       0       0       0       0       0       0       
      +0       0       0       0       0       0
  1712 ;;      Locals:         1       0       0       0       0       0       0       0       0       0       0       0       
      +0       0       0       0       0       0       0       0       0       0       0       0       0       0       0       
      +0       0       0       0       0       0
  1713 ;;      Temps:          0       0       0       0       0       0       0       0       0       0       0       0       
      +0       0       0       0       0       0       0       0       0       0       0       0       0       0       0       
      +0       0       0       0       0       0
  1714 ;;      Totals:         4       0       0       0       0       0       0       0       0       0       0       0       
      +0       0       0       0       0       0       0       0       0       0       0       0       0       0       0       
      +0       0       0       0       0       0
  1715 ;;Total ram usage:        4 bytes
  1716 ;; Hardware stack levels used: 1
  1717 ;; Hardware stack levels required when called: 4
  1718 ;; This function calls:
  1719 ;;		_vfpfcnvrt
  1720 ;; This function is called by:
  1721 ;;		_sprintf
  1722 ;; This function uses a non-reentrant model
  1723 ;;
  1724                           
  1725                           	psect	text3
  1726   005346                     __ptext3:
  1727                           	callstack 0
  1728   005346                     _vfprintf:
  1729                           	callstack 25
  1730   005346                     
  1731                           ;C:\Program Files\Microchip\xc8\v3.00\pic\sources\c99\common\doprnt.c: 1817: int vfprint
      +                          f(FILE *fp, const char *fmt, va_list ap);C:\Program Files\Microchip\xc8\v3.00\pic\source
      +                          s\c99\common\doprnt.c: 1818: {;C:\Program Files\Microchip\xc8\v3.00\pic\sources\c99\comm
      +                          on\doprnt.c: 1820:     char *cfmt;;C:\Program Files\Microchip\xc8\v3.00\pic\sources\c99\
      +                          common\doprnt.c: 1822:     cfmt = (char *)fmt;
  1732   005346  C01B  F01D         	movff	vfprintf@fmt,vfprintf@cfmt
  1733                           
  1734                           ;C:\Program Files\Microchip\xc8\v3.00\pic\sources\c99\common\doprnt.c: 1826:     while (
      +                          *cfmt) {
  1735   00534A  EFAF  F029         	goto	l2535
  1736   00534E                     l2533:
  1737                           
  1738                           ;C:\Program Files\Microchip\xc8\v3.00\pic\sources\c99\common\doprnt.c: 1830:    vfpfcnvr
      +                          t(fp, &cfmt, ap);
  1739   00534E  C01A  F00F         	movff	vfprintf@fp,vfpfcnvrt@fp
  1740   005352  0E1D               	movlw	low vfprintf@cfmt
  1741   005354  6E10               	movwf	vfpfcnvrt@fmt^0,c
  1742   005356  C01C  F011         	movff	vfprintf@ap,vfpfcnvrt@ap
  1743   00535A  ECD9  F024         	call	_vfpfcnvrt	;wreg free
  1744   00535E                     l2535:
  1745                           
  1746                           ;C:\Program Files\Microchip\xc8\v3.00\pic\sources\c99\common\doprnt.c: 1826:     while (
      +                          *cfmt) {
  1747   00535E  0060  F077  FFF6   	movff	vfprintf@cfmt,tblptrl
  1748   005364                     	if	1	;There is more than 1 active tblptr byte
  1749   005364  0E20               	movlw	high __smallconst
  1750   005366  6EF7               	movwf	tblptrh,c
  1751   005368                     	endif
  1752   005368                     	if	0	;tblptru may be non-zero
  1753   005368                     	endif
  1754   005368                     	if	0	;tblptru may be non-zero
  1755   005368                     	endif
  1756   005368  0008               	tblrd		*
  1757   00536A  50F5               	movf	tablat,w,c
  1758   00536C  0900               	iorlw	0
  1759   00536E  A4D8               	btfss	status,2,c
  1760   005370  EFBC  F029         	goto	u2611
  1761   005374  EFBE  F029         	goto	u2610
  1762   005378                     u2611:
  1763   005378  EFA7  F029         	goto	l2533
  1764   00537C                     u2610:
  1765   00537C                     
  1766                           ;C:\Program Files\Microchip\xc8\v3.00\pic\sources\c99\common\doprnt.c: 1835:  return 0;
  1767   00537C  0E00               	movlw	0
  1768   00537E  6E1B               	movwf	(?_vfprintf+1)^0,c
  1769   005380  0E00               	movlw	0
  1770   005382  6E1A               	movwf	?_vfprintf^0,c
  1771   005384  0012               	return		;funcret
  1772   005386                     __end_of_vfprintf:
  1773                           	callstack 0
  1774                           
  1775 ;; *************** function _vfpfcnvrt *****************
  1776 ;; Defined at:
  1777 ;;		line 1177 in file "C:\Program Files\Microchip\xc8\v3.00\pic\sources\c99\common\doprnt.c"
  1778 ;; Parameters:    Size  Location     Type
  1779 ;;  fp              1   14[COMRAM] PTR struct _IO_FILE
  1780 ;;		 -> sprintf@f(11), 
  1781 ;;  fmt             1   15[COMRAM] PTR PTR unsigned char 
  1782 ;;		 -> vfprintf@cfmt(1), 
  1783 ;;  ap              1   16[COMRAM] PTR PTR void 
  1784 ;;		 -> sprintf@ap(1), 
  1785 ;; Auto vars:     Size  Location     Type
  1786 ;;  convarg         4   20[COMRAM] struct .
  1787 ;;  c               1   24[COMRAM] unsigned char 
  1788 ;;  cp              1   19[COMRAM] PTR unsigned char 
  1789 ;;		 -> STR_2(3), 
  1790 ;;  done            1   18[COMRAM] _Bool 
  1791 ;; Return value:  Size  Location     Type
  1792 ;;                  1    wreg      void 
  1793 ;; Registers used:
  1794 ;;		wreg, fsr1l, fsr1h, fsr2l, fsr2h, status,2, status,0, tblptrl, tblptrh, tblptru, cstack
  1795 ;; Tracked objects:
  1796 ;;		On entry : 0/0
  1797 ;;		On exit  : 0/0
  1798 ;;		Unchanged: 0/0
  1799 ;; Data sizes:     COMRAM   BANK0   BANK1   BANK2   BANK3   BANK4   BANK5   BANK6   BANK7   BANK8   BANK9  BANK10  BANK1
      +1  BANK12  BANK13  BANK14  BANK15  BANK16  BANK17  BANK18  BANK19  BANK20  BANK21  BANK22  BANK23  BANK24  BANK25  BANK2
      +6  BANK27  BANK28  BANK29  BANK30  BANK31
  1800 ;;      Params:         3       0       0       0       0       0       0       0       0       0       0       0       
      +0       0       0       0       0       0       0       0       0       0       0       0       0       0       0       
      +0       0       0       0       0       0
  1801 ;;      Locals:         7       0       0       0       0       0       0       0       0       0       0       0       
      +0       0       0       0       0       0       0       0       0       0       0       0       0       0       0       
      +0       0       0       0       0       0
  1802 ;;      Temps:          1       0       0       0       0       0       0       0       0       0       0       0       
      +0       0       0       0       0       0       0       0       0       0       0       0       0       0       0       
      +0       0       0       0       0       0
  1803 ;;      Totals:        11       0       0       0       0       0       0       0       0       0       0       0       
      +0       0       0       0       0       0       0       0       0       0       0       0       0       0       0       
      +0       0       0       0       0       0
  1804 ;;Total ram usage:       11 bytes
  1805 ;; Hardware stack levels used: 1
  1806 ;; Hardware stack levels required when called: 3
  1807 ;; This function calls:
  1808 ;;		___awdiv
  1809 ;;		___awmod
  1810 ;;		_abs
  1811 ;;		_fputc
  1812 ;; This function is called by:
  1813 ;;		_vfprintf
  1814 ;; This function uses a non-reentrant model
  1815 ;;
  1816                           
  1817                           	psect	text4
  1818   0049B2                     __ptext4:
  1819                           	callstack 0
  1820   0049B2                     _vfpfcnvrt:
  1821                           	callstack 25
  1822   0049B2                     
  1823                           ;C:\Program Files\Microchip\xc8\v3.00\pic\sources\c99\common\doprnt.c: 1177: vfpfcnvrt(F
      +                          ILE *fp, char *fmt[], va_list ap);C:\Program Files\Microchip\xc8\v3.00\pic\sources\c99\c
      +                          ommon\doprnt.c: 1178: {;C:\Program Files\Microchip\xc8\v3.00\pic\sources\c99\common\dopr
      +                          nt.c: 1179:     char c, *cp;;C:\Program Files\Microchip\xc8\v3.00\pic\sources\c99\common
      +                          \doprnt.c: 1180:     _Bool done;;C:\Program Files\Microchip\xc8\v3.00\pic\sources\c99\co
      +                          mmon\doprnt.c: 1188:  } convarg;;C:\Program Files\Microchip\xc8\v3.00\pic\sources\c99\co
      +                          mmon\doprnt.c: 1201:     if ((*fmt)[0] == '%') {
  1824   0049B2  5010               	movf	vfpfcnvrt@fmt^0,w,c
  1825   0049B4  6ED9               	movwf	fsr2l,c
  1826   0049B6  6ADA               	clrf	fsr2h,c
  1827   0049B8  006F FF7F FFF6     	movff	indf2,tblptrl
  1828   0049BE                     	if	1	;There is more than 1 active tblptr byte
  1829   0049BE  0E20               	movlw	high __smallconst
  1830   0049C0  6EF7               	movwf	tblptrh,c
  1831   0049C2                     	endif
  1832   0049C2                     	if	0	;tblptru may be non-zero
  1833   0049C2                     	endif
  1834   0049C2                     	if	0	;tblptru may be non-zero
  1835   0049C2                     	endif
  1836   0049C2  0008               	tblrd		*
  1837   0049C4  50F5               	movf	tablat,w,c
  1838   0049C6  0A25               	xorlw	37
  1839   0049C8  A4D8               	btfss	status,2,c
  1840   0049CA  EFE9  F024         	goto	u2481
  1841   0049CE  EFEB  F024         	goto	u2480
  1842   0049D2                     u2481:
  1843   0049D2  EFA8  F025         	goto	l2505
  1844   0049D6                     u2480:
  1845   0049D6                     
  1846                           ;C:\Program Files\Microchip\xc8\v3.00\pic\sources\c99\common\doprnt.c: 1202:         ++*
      +                          fmt;
  1847   0049D6  5010               	movf	vfpfcnvrt@fmt^0,w,c
  1848   0049D8  6ED9               	movwf	fsr2l,c
  1849   0049DA  6ADA               	clrf	fsr2h,c
  1850   0049DC  2ADF               	incf	indf2,f,c
  1851   0049DE                     
  1852                           ;C:\Program Files\Microchip\xc8\v3.00\pic\sources\c99\common\doprnt.c: 1204:         fla
      +                          gs = width = 0;
  1853   0049DE  0E00               	movlw	0
  1854   0049E0  6E47               	movwf	(_width+1)^0,c
  1855   0049E2  0E00               	movlw	0
  1856   0049E4  6E46               	movwf	_width^0,c
  1857   0049E6  C046  F04C         	movff	_width,_flags
  1858   0049EA                     
  1859                           ;C:\Program Files\Microchip\xc8\v3.00\pic\sources\c99\common\doprnt.c: 1205:         pre
      +                          c = -1;
  1860   0049EA  6848               	setf	_prec^0,c
  1861   0049EC  6849               	setf	(_prec+1)^0,c
  1862   0049EE                     
  1863                           ;C:\Program Files\Microchip\xc8\v3.00\pic\sources\c99\common\doprnt.c: 1291:   cp = *fmt
      +                          ;
  1864   0049EE  5010               	movf	vfpfcnvrt@fmt^0,w,c
  1865   0049F0  6ED9               	movwf	fsr2l,c
  1866   0049F2  6ADA               	clrf	fsr2h,c
  1867   0049F4  50DF               	movf	indf2,w,c
  1868   0049F6  6E14               	movwf	vfpfcnvrt@cp^0,c
  1869   0049F8                     
  1870                           ;C:\Program Files\Microchip\xc8\v3.00\pic\sources\c99\common\doprnt.c: 1361:   if (*cp =
      +                          = 'd' || *cp == 'i') {
  1871   0049F8  0060  F053  FFF6   	movff	vfpfcnvrt@cp,tblptrl
  1872   0049FE                     	if	1	;There is more than 1 active tblptr byte
  1873   0049FE  0E20               	movlw	high __smallconst
  1874   004A00  6EF7               	movwf	tblptrh,c
  1875   004A02                     	endif
  1876   004A02                     	if	0	;tblptru may be non-zero
  1877   004A02                     	endif
  1878   004A02                     	if	0	;tblptru may be non-zero
  1879   004A02                     	endif
  1880   004A02  0008               	tblrd		*
  1881   004A04  50F5               	movf	tablat,w,c
  1882   004A06  0A64               	xorlw	100
  1883   004A08  B4D8               	btfsc	status,2,c
  1884   004A0A  EF09  F025         	goto	u2491
  1885   004A0E  EF0B  F025         	goto	u2490
  1886   004A12                     u2491:
  1887   004A12  EF1A  F025         	goto	l2475
  1888   004A16                     u2490:
  1889   004A16  0060  F053  FFF6   	movff	vfpfcnvrt@cp,tblptrl
  1890   004A1C                     	if	1	;There is more than 1 active tblptr byte
  1891   004A1C  0E20               	movlw	high __smallconst
  1892   004A1E  6EF7               	movwf	tblptrh,c
  1893   004A20                     	endif
  1894   004A20                     	if	0	;tblptru may be non-zero
  1895   004A20                     	endif
  1896   004A20                     	if	0	;tblptru may be non-zero
  1897   004A20                     	endif
  1898   004A20  0008               	tblrd		*
  1899   004A22  50F5               	movf	tablat,w,c
  1900   004A24  0A69               	xorlw	105
  1901   004A26  A4D8               	btfss	status,2,c
  1902   004A28  EF18  F025         	goto	u2501
  1903   004A2C  EF1A  F025         	goto	u2500
  1904   004A30                     u2501:
  1905   004A30  EFA2  F025         	goto	l2501
  1906   004A34                     u2500:
  1907   004A34                     l2475:
  1908                           
  1909                           ;C:\Program Files\Microchip\xc8\v3.00\pic\sources\c99\common\doprnt.c: 1404:    convarg.
      +                          sint = (vfpf_sint_t)(int)(*(int *)__va_arg(*(int **)ap, (int)0));
  1910   004A34  5011               	movf	vfpfcnvrt@ap^0,w,c
  1911   004A36  6ED9               	movwf	fsr2l,c
  1912   004A38  6ADA               	clrf	fsr2h,c
  1913   004A3A  0E02               	movlw	2
  1914   004A3C  26DF               	addwf	indf2,f,c
  1915   004A3E  5CDF               	subwf	indf2,w,c
  1916   004A40  6ED9               	movwf	fsr2l,c
  1917   004A42  6ADA               	clrf	fsr2h,c
  1918   004A44  006F FF78  F015    	movff	postinc2,vfpfcnvrt@convarg
  1919   004A4A  006F FF78  F016    	movff	postinc2,vfpfcnvrt@convarg+1
  1920   004A50                     
  1921                           ;C:\Program Files\Microchip\xc8\v3.00\pic\sources\c99\common\doprnt.c: 1406:    *fmt = c
      +                          p+1;
  1922   004A50  5010               	movf	vfpfcnvrt@fmt^0,w,c
  1923   004A52  6ED9               	movwf	fsr2l,c
  1924   004A54  6ADA               	clrf	fsr2h,c
  1925   004A56  2814               	incf	vfpfcnvrt@cp^0,w,c
  1926   004A58  6EDF               	movwf	indf2,c
  1927   004A5A                     
  1928                           ;C:\Program Files\Microchip\xc8\v3.00\pic\sources\c99\common\doprnt.c: 1408:    c = size
      +                          of(dbuf);
  1929   004A5A  0E20               	movlw	32
  1930   004A5C  6E19               	movwf	vfpfcnvrt@c^0,c
  1931                           
  1932                           ;C:\Program Files\Microchip\xc8\v3.00\pic\sources\c99\common\doprnt.c: 1409:    done = c
      +                          onvarg.sint < 0;
  1933   004A5E  BE16               	btfsc	(vfpfcnvrt@convarg+1)^0,7,c
  1934   004A60  EF34  F025         	goto	u2511
  1935   004A64  EF37  F025         	goto	u2510
  1936   004A68                     u2511:
  1937   004A68  0E01               	movlw	1
  1938   004A6A  EF38  F025         	goto	u2520
  1939   004A6E                     u2510:
  1940   004A6E  0E00               	movlw	0
  1941   004A70                     u2520:
  1942   004A70  6E13               	movwf	vfpfcnvrt@done^0,c
  1943   004A72                     l2481:
  1944                           
  1945                           ;C:\Program Files\Microchip\xc8\v3.00\pic\sources\c99\common\doprnt.c: 1411:     dbuf[--
      +                          c] = abs(convarg.sint % 10) + '0';
  1946   004A72  0619               	decf	vfpfcnvrt@c^0,f,c
  1947   004A74  5019               	movf	vfpfcnvrt@c^0,w,c
  1948   004A76  0F60               	addlw	low _dbuf
  1949   004A78  6ED9               	movwf	fsr2l,c
  1950   004A7A  6ADA               	clrf	fsr2h,c
  1951   004A7C  C015  F005         	movff	vfpfcnvrt@convarg,___awmod@dividend
  1952   004A80  C016  F006         	movff	vfpfcnvrt@convarg+1,___awmod@dividend+1
  1953   004A84  0E00               	movlw	0
  1954   004A86  6E08               	movwf	(___awmod@divisor+1)^0,c
  1955   004A88  0E0A               	movlw	10
  1956   004A8A  6E07               	movwf	___awmod@divisor^0,c
  1957   004A8C  EC2F  F028         	call	___awmod	;wreg free
  1958   004A90  C005  F00B         	movff	?___awmod,abs@a
  1959   004A94  C006  F00C         	movff	?___awmod+1,abs@a+1
  1960   004A98  ECFD  F029         	call	_abs	;wreg free
  1961   004A9C  500B               	movf	?_abs^0,w,c
  1962   004A9E  0F30               	addlw	48
  1963   004AA0  6EDF               	movwf	indf2,c
  1964   004AA2                     
  1965                           ;C:\Program Files\Microchip\xc8\v3.00\pic\sources\c99\common\doprnt.c: 1412:     convarg
      +                          .sint /= 10;
  1966   004AA2  C015  F005         	movff	vfpfcnvrt@convarg,___awdiv@dividend
  1967   004AA6  C016  F006         	movff	vfpfcnvrt@convarg+1,___awdiv@dividend+1
  1968   004AAA  0E00               	movlw	0
  1969   004AAC  6E08               	movwf	(___awdiv@divisor+1)^0,c
  1970   004AAE  0E0A               	movlw	10
  1971   004AB0  6E07               	movwf	___awdiv@divisor^0,c
  1972   004AB2  ECCE  F027         	call	___awdiv	;wreg free
  1973   004AB6  C005  F015         	movff	?___awdiv,vfpfcnvrt@convarg
  1974   004ABA  C006  F016         	movff	?___awdiv+1,vfpfcnvrt@convarg+1
  1975   004ABE                     
  1976                           ;C:\Program Files\Microchip\xc8\v3.00\pic\sources\c99\common\doprnt.c: 1416:    } while 
      +                          (convarg.sint != 0 && c != 0);
  1977   004ABE  5015               	movf	vfpfcnvrt@convarg^0,w,c
  1978   004AC0  1016               	iorwf	(vfpfcnvrt@convarg+1)^0,w,c
  1979   004AC2  B4D8               	btfsc	status,2,c
  1980   004AC4  EF66  F025         	goto	u2531
  1981   004AC8  EF68  F025         	goto	u2530
  1982   004ACC                     u2531:
  1983   004ACC  EF70  F025         	goto	l2489
  1984   004AD0                     u2530:
  1985   004AD0  5019               	movf	vfpfcnvrt@c^0,w,c
  1986   004AD2  A4D8               	btfss	status,2,c
  1987   004AD4  EF6E  F025         	goto	u2541
  1988   004AD8  EF70  F025         	goto	u2540
  1989   004ADC                     u2541:
  1990   004ADC  EF39  F025         	goto	l2481
  1991   004AE0                     u2540:
  1992   004AE0                     l2489:
  1993                           
  1994                           ;C:\Program Files\Microchip\xc8\v3.00\pic\sources\c99\common\doprnt.c: 1417:    if (c !=
      +                           0 && done) {
  1995   004AE0  5019               	movf	vfpfcnvrt@c^0,w,c
  1996   004AE2  B4D8               	btfsc	status,2,c
  1997   004AE4  EF76  F025         	goto	u2551
  1998   004AE8  EF78  F025         	goto	u2550
  1999   004AEC                     u2551:
  2000   004AEC  EF97  F025         	goto	l2499
  2001   004AF0                     u2550:
  2002   004AF0  5013               	movf	vfpfcnvrt@done^0,w,c
  2003   004AF2  B4D8               	btfsc	status,2,c
  2004   004AF4  EF7E  F025         	goto	u2561
  2005   004AF8  EF80  F025         	goto	u2560
  2006   004AFC                     u2561:
  2007   004AFC  EF97  F025         	goto	l2499
  2008   004B00                     u2560:
  2009   004B00                     
  2010                           ;C:\Program Files\Microchip\xc8\v3.00\pic\sources\c99\common\doprnt.c: 1418:     dbuf[--
      +                          c] = '-';
  2011   004B00  0619               	decf	vfpfcnvrt@c^0,f,c
  2012   004B02  5019               	movf	vfpfcnvrt@c^0,w,c
  2013   004B04  0F60               	addlw	low _dbuf
  2014   004B06  6ED9               	movwf	fsr2l,c
  2015   004B08  6ADA               	clrf	fsr2h,c
  2016   004B0A  0E2D               	movlw	45
  2017   004B0C  6EDF               	movwf	indf2,c
  2018   004B0E  EF97  F025         	goto	l2499
  2019   004B12                     l2495:
  2020                           
  2021                           ;C:\Program Files\Microchip\xc8\v3.00\pic\sources\c99\common\doprnt.c: 1424:     fputc(d
      +                          buf[c++], fp);
  2022   004B12  5019               	movf	vfpfcnvrt@c^0,w,c
  2023   004B14  0F60               	addlw	low _dbuf
  2024   004B16  6ED9               	movwf	fsr2l,c
  2025   004B18  6ADA               	clrf	fsr2h,c
  2026   004B1A  50DF               	movf	indf2,w,c
  2027   004B1C  6E12               	movwf	??_vfpfcnvrt^0,c
  2028   004B1E  5012               	movf	??_vfpfcnvrt^0,w,c
  2029   004B20  6E05               	movwf	fputc@c^0,c
  2030   004B22  6A06               	clrf	(fputc@c+1)^0,c
  2031   004B24  C00F  F007         	movff	vfpfcnvrt@fp,fputc@fp
  2032   004B28  EC86  F028         	call	_fputc	;wreg free
  2033   004B2C  2A19               	incf	vfpfcnvrt@c^0,f,c
  2034   004B2E                     l2499:
  2035                           
  2036                           ;C:\Program Files\Microchip\xc8\v3.00\pic\sources\c99\common\doprnt.c: 1423:    while (c
      +                           != sizeof(dbuf)) {
  2037   004B2E  0E20               	movlw	32
  2038   004B30  1819               	xorwf	vfpfcnvrt@c^0,w,c
  2039   004B32  A4D8               	btfss	status,2,c
  2040   004B34  EF9E  F025         	goto	u2571
  2041   004B38  EFA0  F025         	goto	u2570
  2042   004B3C                     u2571:
  2043   004B3C  EF89  F025         	goto	l2495
  2044   004B40                     u2570:
  2045   004B40  EFBA  F025         	goto	l860
  2046   004B44                     l2501:
  2047                           
  2048                           ;C:\Program Files\Microchip\xc8\v3.00\pic\sources\c99\common\doprnt.c: 1806:         ++*
      +                          fmt;
  2049   004B44  5010               	movf	vfpfcnvrt@fmt^0,w,c
  2050   004B46  6ED9               	movwf	fsr2l,c
  2051   004B48  6ADA               	clrf	fsr2h,c
  2052   004B4A  2ADF               	incf	indf2,f,c
  2053   004B4C  EFBA  F025         	goto	l860
  2054   004B50                     l2505:
  2055                           
  2056                           ;C:\Program Files\Microchip\xc8\v3.00\pic\sources\c99\common\doprnt.c: 1811:     fputc((
      +                          int)(*fmt)[0], fp);
  2057   004B50  5010               	movf	vfpfcnvrt@fmt^0,w,c
  2058   004B52  6ED9               	movwf	fsr2l,c
  2059   004B54  6ADA               	clrf	fsr2h,c
  2060   004B56  006F FF7F FFF6     	movff	indf2,tblptrl
  2061   004B5C                     	if	1	;There is more than 1 active tblptr byte
  2062   004B5C  0E20               	movlw	high __smallconst
  2063   004B5E  6EF7               	movwf	tblptrh,c
  2064   004B60                     	endif
  2065   004B60                     	if	0	;tblptru may be non-zero
  2066   004B60                     	endif
  2067   004B60                     	if	0	;tblptru may be non-zero
  2068   004B60                     	endif
  2069   004B60  0008               	tblrd		*
  2070   004B62  50F5               	movf	tablat,w,c
  2071   004B64  6E05               	movwf	fputc@c^0,c
  2072   004B66  6A06               	clrf	(fputc@c+1)^0,c
  2073   004B68  C00F  F007         	movff	vfpfcnvrt@fp,fputc@fp
  2074   004B6C  EC86  F028         	call	_fputc	;wreg free
  2075   004B70  EFA2  F025         	goto	l2501
  2076   004B74                     l860:
  2077   004B74  0012               	return		;funcret
  2078   004B76                     __end_of_vfpfcnvrt:
  2079                           	callstack 0
  2080                           
  2081 ;; *************** function _fputc *****************
  2082 ;; Defined at:
  2083 ;;		line 8 in file "C:\Program Files\Microchip\xc8\v3.00\pic\sources\c99\common\nf_fputc.c"
  2084 ;; Parameters:    Size  Location     Type
  2085 ;;  c               2    4[COMRAM] int 
  2086 ;;  fp              1    6[COMRAM] PTR struct _IO_FILE
  2087 ;;		 -> sprintf@f(11), 
  2088 ;; Auto vars:     Size  Location     Type
  2089 ;;		None
  2090 ;; Return value:  Size  Location     Type
  2091 ;;                  2    4[COMRAM] int 
  2092 ;; Registers used:
  2093 ;;		wreg, fsr1l, fsr1h, fsr2l, fsr2h, status,2, status,0, cstack
  2094 ;; Tracked objects:
  2095 ;;		On entry : 0/0
  2096 ;;		On exit  : 0/0
  2097 ;;		Unchanged: 0/0
  2098 ;; Data sizes:     COMRAM   BANK0   BANK1   BANK2   BANK3   BANK4   BANK5   BANK6   BANK7   BANK8   BANK9  BANK10  BANK1
      +1  BANK12  BANK13  BANK14  BANK15  BANK16  BANK17  BANK18  BANK19  BANK20  BANK21  BANK22  BANK23  BANK24  BANK25  BANK2
      +6  BANK27  BANK28  BANK29  BANK30  BANK31
  2099 ;;      Params:         3       0       0       0       0       0       0       0       0       0       0       0       
      +0       0       0       0       0       0       0       0       0       0       0       0       0       0       0       
      +0       0       0       0       0       0
  2100 ;;      Locals:         0       0       0       0       0       0       0       0       0       0       0       0       
      +0       0       0       0       0       0       0       0       0       0       0       0       0       0       0       
      +0       0       0       0       0       0
  2101 ;;      Temps:          5       0       0       0       0       0       0       0       0       0       0       0       
      +0       0       0       0       0       0       0       0       0       0       0       0       0       0       0       
      +0       0       0       0       0       0
  2102 ;;      Totals:         8       0       0       0       0       0       0       0       0       0       0       0       
      +0       0       0       0       0       0       0       0       0       0       0       0       0       0       0       
      +0       0       0       0       0       0
  2103 ;;Total ram usage:        8 bytes
  2104 ;; Hardware stack levels used: 1
  2105 ;; Hardware stack levels required when called: 2
  2106 ;; This function calls:
  2107 ;;		_putch
  2108 ;; This function is called by:
  2109 ;;		_vfpfcnvrt
  2110 ;; This function uses a non-reentrant model
  2111 ;;
  2112                           
  2113                           	psect	text5
  2114   00510C                     __ptext5:
  2115                           	callstack 0
  2116   00510C                     _fputc:
  2117                           	callstack 25
  2118   00510C  5007               	movf	fputc@fp^0,w,c
  2119   00510E  B4D8               	btfsc	status,2,c
  2120   005110  EF8C  F028         	goto	u2431
  2121   005114  EF8E  F028         	goto	u2430
  2122   005118                     u2431:
  2123   005118  EF96  F028         	goto	l2435
  2124   00511C                     u2430:
  2125   00511C  5007               	movf	fputc@fp^0,w,c
  2126   00511E  A4D8               	btfss	status,2,c
  2127   005120  EF94  F028         	goto	u2441
  2128   005124  EF96  F028         	goto	u2440
  2129   005128                     u2441:
  2130   005128  EF9B  F028         	goto	l2437
  2131   00512C                     u2440:
  2132   00512C                     l2435:
  2133   00512C  5005               	movf	fputc@c^0,w,c
  2134   00512E  EC87  F02A         	call	_putch
  2135   005132  EFDB  F028         	goto	l885
  2136   005136                     l2437:
  2137   005136  5007               	movf	fputc@fp^0,w,c
  2138   005138  6ED9               	movwf	fsr2l,c
  2139   00513A  6ADA               	clrf	fsr2h,c
  2140   00513C  0E09               	movlw	9
  2141   00513E  26D9               	addwf	fsr2l,f,c
  2142   005140  50DE               	movf	postinc2,w,c
  2143   005142  10DE               	iorwf	postinc2,w,c
  2144   005144  B4D8               	btfsc	status,2,c
  2145   005146  EFA7  F028         	goto	u2451
  2146   00514A  EFA9  F028         	goto	u2450
  2147   00514E                     u2451:
  2148   00514E  EFC2  F028         	goto	l2441
  2149   005152                     u2450:
  2150   005152  5007               	movf	fputc@fp^0,w,c
  2151   005154  6ED9               	movwf	fsr2l,c
  2152   005156  6ADA               	clrf	fsr2h,c
  2153   005158  0E09               	movlw	9
  2154   00515A  26D9               	addwf	fsr2l,f,c
  2155   00515C  5007               	movf	fputc@fp^0,w,c
  2156   00515E  6EE1               	movwf	fsr1l,c
  2157   005160  6AE2               	clrf	fsr1h,c
  2158   005162  0E02               	movlw	2
  2159   005164  26E1               	addwf	fsr1l,f,c
  2160   005166  50DE               	movf	postinc2,w,c
  2161   005168  5CE6               	subwf	postinc1,w,c
  2162   00516A  50E6               	movf	postinc1,w,c
  2163   00516C  0A80               	xorlw	128
  2164   00516E  6E0C               	movwf	(??_fputc+4)^0,c
  2165   005170  50DE               	movf	postinc2,w,c
  2166   005172  0A80               	xorlw	128
  2167   005174  580C               	subwfb	(??_fputc+4)^0,w,c
  2168   005176  B0D8               	btfsc	status,0,c
  2169   005178  EFC0  F028         	goto	u2461
  2170   00517C  EFC2  F028         	goto	u2460
  2171   005180                     u2461:
  2172   005180  EFDB  F028         	goto	l885
  2173   005184                     u2460:
  2174   005184                     l2441:
  2175   005184  5007               	movf	fputc@fp^0,w,c
  2176   005186  6ED9               	movwf	fsr2l,c
  2177   005188  6ADA               	clrf	fsr2h,c
  2178   00518A  0E02               	movlw	2
  2179   00518C  26D9               	addwf	fsr2l,f,c
  2180   00518E  50DF               	movf	indf2,w,c
  2181   005190  6E08               	movwf	??_fputc^0,c
  2182   005192  5007               	movf	fputc@fp^0,w,c
  2183   005194  6ED9               	movwf	fsr2l,c
  2184   005196  6ADA               	clrf	fsr2h,c
  2185   005198  50DF               	movf	indf2,w,c
  2186   00519A  2408               	addwf	??_fputc^0,w,c
  2187   00519C  6ED9               	movwf	fsr2l,c
  2188   00519E  6ADA               	clrf	fsr2h,c
  2189   0051A0  0060  F017  FFDF   	movff	fputc@c,indf2
  2190   0051A6  5007               	movf	fputc@fp^0,w,c
  2191   0051A8  6ED9               	movwf	fsr2l,c
  2192   0051AA  6ADA               	clrf	fsr2h,c
  2193   0051AC  0E02               	movlw	2
  2194   0051AE  26D9               	addwf	fsr2l,f,c
  2195   0051B0  2ADE               	incf	postinc2,f,c
  2196   0051B2  0E00               	movlw	0
  2197   0051B4  22DD               	addwfc	postdec2,f,c
  2198   0051B6                     l885:
  2199   0051B6  0012               	return		;funcret
  2200   0051B8                     __end_of_fputc:
  2201                           	callstack 0
  2202                           
  2203 ;; *************** function _putch *****************
  2204 ;; Defined at:
  2205 ;;		line 7 in file "C:\Program Files\Microchip\xc8\v3.00\pic\sources\c99\common\putch.c"
  2206 ;; Parameters:    Size  Location     Type
  2207 ;;  c               1    wreg     unsigned char 
  2208 ;; Auto vars:     Size  Location     Type
  2209 ;;  c               1    0[COMRAM] unsigned char 
  2210 ;; Return value:  Size  Location     Type
  2211 ;;                  1    wreg      void 
  2212 ;; Registers used:
  2213 ;;		wreg
  2214 ;; Tracked objects:
  2215 ;;		On entry : 0/0
  2216 ;;		On exit  : 0/0
  2217 ;;		Unchanged: 0/0
  2218 ;; Data sizes:     COMRAM   BANK0   BANK1   BANK2   BANK3   BANK4   BANK5   BANK6   BANK7   BANK8   BANK9  BANK10  BANK1
      +1  BANK12  BANK13  BANK14  BANK15  BANK16  BANK17  BANK18  BANK19  BANK20  BANK21  BANK22  BANK23  BANK24  BANK25  BANK2
      +6  BANK27  BANK28  BANK29  BANK30  BANK31
  2219 ;;      Params:         0       0       0       0       0       0       0       0       0       0       0       0       
      +0       0       0       0       0       0       0       0       0       0       0       0       0       0       0       
      +0       0       0       0       0       0
  2220 ;;      Locals:         0       0       0       0       0       0       0       0       0       0       0       0       
      +0       0       0       0       0       0       0       0       0       0       0       0       0       0       0       
      +0       0       0       0       0       0
  2221 ;;      Temps:          0       0       0       0       0       0       0       0       0       0       0       0       
      +0       0       0       0       0       0       0       0       0       0       0       0       0       0       0       
      +0       0       0       0       0       0
  2222 ;;      Totals:         0       0       0       0       0       0       0       0       0       0       0       0       
      +0       0       0       0       0       0       0       0       0       0       0       0       0       0       0       
      +0       0       0       0       0       0
  2223 ;;Total ram usage:        0 bytes
  2224 ;; Hardware stack levels used: 1
  2225 ;; Hardware stack levels required when called: 1
  2226 ;; This function calls:
  2227 ;;		Nothing
  2228 ;; This function is called by:
  2229 ;;		_fputc
  2230 ;; This function uses a non-reentrant model
  2231 ;;
  2232                           
  2233                           	psect	text6
  2234   00550E                     __ptext6:
  2235                           	callstack 0
  2236   00550E                     _putch:
  2237                           	callstack 25
  2238   00550E  0012               	return		;funcret
  2239   005510                     __end_of_putch:
  2240                           	callstack 0
  2241                           
  2242 ;; *************** function _abs *****************
  2243 ;; Defined at:
  2244 ;;		line 1 in file "C:\Program Files\Microchip\xc8\v3.00\pic\sources\c99\common\abs.c"
  2245 ;; Parameters:    Size  Location     Type
  2246 ;;  a               2   10[COMRAM] int 
  2247 ;; Auto vars:     Size  Location     Type
  2248 ;;		None
  2249 ;; Return value:  Size  Location     Type
  2250 ;;                  2   10[COMRAM] int 
  2251 ;; Registers used:
  2252 ;;		wreg, status,2, status,0
  2253 ;; Tracked objects:
  2254 ;;		On entry : 0/0
  2255 ;;		On exit  : 0/0
  2256 ;;		Unchanged: 0/0
  2257 ;; Data sizes:     COMRAM   BANK0   BANK1   BANK2   BANK3   BANK4   BANK5   BANK6   BANK7   BANK8   BANK9  BANK10  BANK1
      +1  BANK12  BANK13  BANK14  BANK15  BANK16  BANK17  BANK18  BANK19  BANK20  BANK21  BANK22  BANK23  BANK24  BANK25  BANK2
      +6  BANK27  BANK28  BANK29  BANK30  BANK31
  2258 ;;      Params:         2       0       0       0       0       0       0       0       0       0       0       0       
      +0       0       0       0       0       0       0       0       0       0       0       0       0       0       0       
      +0       0       0       0       0       0
  2259 ;;      Locals:         0       0       0       0       0       0       0       0       0       0       0       0       
      +0       0       0       0       0       0       0       0       0       0       0       0       0       0       0       
      +0       0       0       0       0       0
  2260 ;;      Temps:          2       0       0       0       0       0       0       0       0       0       0       0       
      +0       0       0       0       0       0       0       0       0       0       0       0       0       0       0       
      +0       0       0       0       0       0
  2261 ;;      Totals:         4       0       0       0       0       0       0       0       0       0       0       0       
      +0       0       0       0       0       0       0       0       0       0       0       0       0       0       0       
      +0       0       0       0       0       0
  2262 ;;Total ram usage:        4 bytes
  2263 ;; Hardware stack levels used: 1
  2264 ;; Hardware stack levels required when called: 1
  2265 ;; This function calls:
  2266 ;;		Nothing
  2267 ;; This function is called by:
  2268 ;;		_vfpfcnvrt
  2269 ;; This function uses a non-reentrant model
  2270 ;;
  2271                           
  2272                           	psect	text7
  2273   0053FA                     __ptext7:
  2274                           	callstack 0
  2275   0053FA                     _abs:
  2276                           	callstack 26
  2277   0053FA  BE0C               	btfsc	(abs@a+1)^0,7,c
  2278   0053FC  EF02  F02A         	goto	u2471
  2279   005400  EF04  F02A         	goto	u2470
  2280   005404                     u2471:
  2281   005404  EF0A  F02A         	goto	l870
  2282   005408                     u2470:
  2283   005408  C00B  F00B         	movff	abs@a,?_abs
  2284   00540C  C00C  F00C         	movff	abs@a+1,?_abs+1
  2285   005410  EF16  F02A         	goto	l873
  2286   005414                     l870:
  2287   005414  C00B  F00D         	movff	abs@a,??_abs
  2288   005418  C00C  F00E         	movff	abs@a+1,??_abs+1
  2289   00541C  1E0D               	comf	??_abs^0,f,c
  2290   00541E  1E0E               	comf	(??_abs+1)^0,f,c
  2291   005420  4A0D               	infsnz	??_abs^0,f,c
  2292   005422  2A0E               	incf	(??_abs+1)^0,f,c
  2293   005424  C00D  F00B         	movff	??_abs,?_abs
  2294   005428  C00E  F00C         	movff	??_abs+1,?_abs+1
  2295   00542C                     l873:
  2296   00542C  0012               	return		;funcret
  2297   00542E                     __end_of_abs:
  2298                           	callstack 0
  2299                           
  2300 ;; *************** function ___awmod *****************
  2301 ;; Defined at:
  2302 ;;		line 7 in file "C:\Program Files\Microchip\xc8\v3.00\pic\sources\c99\common\awmod.c"
  2303 ;; Parameters:    Size  Location     Type
  2304 ;;  dividend        2    4[COMRAM] int 
  2305 ;;  divisor         2    6[COMRAM] int 
  2306 ;; Auto vars:     Size  Location     Type
  2307 ;;  sign            1    9[COMRAM] unsigned char 
  2308 ;;  counter         1    8[COMRAM] unsigned char 
  2309 ;; Return value:  Size  Location     Type
  2310 ;;                  2    4[COMRAM] int 
  2311 ;; Registers used:
  2312 ;;		wreg, status,2, status,0
  2313 ;; Tracked objects:
  2314 ;;		On entry : 0/0
  2315 ;;		On exit  : 0/0
  2316 ;;		Unchanged: 0/0
  2317 ;; Data sizes:     COMRAM   BANK0   BANK1   BANK2   BANK3   BANK4   BANK5   BANK6   BANK7   BANK8   BANK9  BANK10  BANK1
      +1  BANK12  BANK13  BANK14  BANK15  BANK16  BANK17  BANK18  BANK19  BANK20  BANK21  BANK22  BANK23  BANK24  BANK25  BANK2
      +6  BANK27  BANK28  BANK29  BANK30  BANK31
  2318 ;;      Params:         4       0       0       0       0       0       0       0       0       0       0       0       
      +0       0       0       0       0       0       0       0       0       0       0       0       0       0       0       
      +0       0       0       0       0       0
  2319 ;;      Locals:         2       0       0       0       0       0       0       0       0       0       0       0       
      +0       0       0       0       0       0       0       0       0       0       0       0       0       0       0       
      +0       0       0       0       0       0
  2320 ;;      Temps:          0       0       0       0       0       0       0       0       0       0       0       0       
      +0       0       0       0       0       0       0       0       0       0       0       0       0       0       0       
      +0       0       0       0       0       0
  2321 ;;      Totals:         6       0       0       0       0       0       0       0       0       0       0       0       
      +0       0       0       0       0       0       0       0       0       0       0       0       0       0       0       
      +0       0       0       0       0       0
  2322 ;;Total ram usage:        6 bytes
  2323 ;; Hardware stack levels used: 1
  2324 ;; Hardware stack levels required when called: 1
  2325 ;; This function calls:
  2326 ;;		Nothing
  2327 ;; This function is called by:
  2328 ;;		_vfpfcnvrt
  2329 ;; This function uses a non-reentrant model
  2330 ;;
  2331                           
  2332                           	psect	text8
  2333   00505E                     __ptext8:
  2334                           	callstack 0
  2335   00505E                     ___awmod:
  2336                           	callstack 26
  2337   00505E  6A0A               	clrf	___awmod@sign^0,c
  2338   005060  BE06               	btfsc	(___awmod@dividend+1)^0,7,c
  2339   005062  EF37  F028         	goto	u2370
  2340   005066  EF35  F028         	goto	u2371
  2341   00506A                     u2371:
  2342   00506A  EF3D  F028         	goto	l2403
  2343   00506E                     u2370:
  2344   00506E  6C05               	negf	___awmod@dividend^0,c
  2345   005070  1E06               	comf	(___awmod@dividend+1)^0,f,c
  2346   005072  B0D8               	btfsc	status,0,c
  2347   005074  2A06               	incf	(___awmod@dividend+1)^0,f,c
  2348   005076  0E01               	movlw	1
  2349   005078  6E0A               	movwf	___awmod@sign^0,c
  2350   00507A                     l2403:
  2351   00507A  BE08               	btfsc	(___awmod@divisor+1)^0,7,c
  2352   00507C  EF44  F028         	goto	u2380
  2353   005080  EF42  F028         	goto	u2381
  2354   005084                     u2381:
  2355   005084  EF48  F028         	goto	l2407
  2356   005088                     u2380:
  2357   005088  6C07               	negf	___awmod@divisor^0,c
  2358   00508A  1E08               	comf	(___awmod@divisor+1)^0,f,c
  2359   00508C  B0D8               	btfsc	status,0,c
  2360   00508E  2A08               	incf	(___awmod@divisor+1)^0,f,c
  2361   005090                     l2407:
  2362   005090  5007               	movf	___awmod@divisor^0,w,c
  2363   005092  1008               	iorwf	(___awmod@divisor+1)^0,w,c
  2364   005094  B4D8               	btfsc	status,2,c
  2365   005096  EF4F  F028         	goto	u2391
  2366   00509A  EF51  F028         	goto	u2390
  2367   00509E                     u2391:
  2368   00509E  EF75  F028         	goto	l2423
  2369   0050A2                     u2390:
  2370   0050A2  0E01               	movlw	1
  2371   0050A4  6E09               	movwf	___awmod@counter^0,c
  2372   0050A6  EF59  F028         	goto	l2413
  2373   0050AA                     l2411:
  2374   0050AA  90D8               	bcf	status,0,c
  2375   0050AC  3607               	rlcf	___awmod@divisor^0,f,c
  2376   0050AE  3608               	rlcf	(___awmod@divisor+1)^0,f,c
  2377   0050B0  2A09               	incf	___awmod@counter^0,f,c
  2378   0050B2                     l2413:
  2379   0050B2  AE08               	btfss	(___awmod@divisor+1)^0,7,c
  2380   0050B4  EF5E  F028         	goto	u2401
  2381   0050B8  EF60  F028         	goto	u2400
  2382   0050BC                     u2401:
  2383   0050BC  EF55  F028         	goto	l2411
  2384   0050C0                     u2400:
  2385   0050C0                     l2415:
  2386   0050C0  5007               	movf	___awmod@divisor^0,w,c
  2387   0050C2  5C05               	subwf	___awmod@dividend^0,w,c
  2388   0050C4  5008               	movf	(___awmod@divisor+1)^0,w,c
  2389   0050C6  5806               	subwfb	(___awmod@dividend+1)^0,w,c
  2390   0050C8  A0D8               	btfss	status,0,c
  2391   0050CA  EF69  F028         	goto	u2411
  2392   0050CE  EF6B  F028         	goto	u2410
  2393   0050D2                     u2411:
  2394   0050D2  EF6F  F028         	goto	l2419
  2395   0050D6                     u2410:
  2396   0050D6  5007               	movf	___awmod@divisor^0,w,c
  2397   0050D8  5E05               	subwf	___awmod@dividend^0,f,c
  2398   0050DA  5008               	movf	(___awmod@divisor+1)^0,w,c
  2399   0050DC  5A06               	subwfb	(___awmod@dividend+1)^0,f,c
  2400   0050DE                     l2419:
  2401   0050DE  90D8               	bcf	status,0,c
  2402   0050E0  3208               	rrcf	(___awmod@divisor+1)^0,f,c
  2403   0050E2  3207               	rrcf	___awmod@divisor^0,f,c
  2404   0050E4  2E09               	decfsz	___awmod@counter^0,f,c
  2405   0050E6  EF60  F028         	goto	l2415
  2406   0050EA                     l2423:
  2407   0050EA  500A               	movf	___awmod@sign^0,w,c
  2408   0050EC  B4D8               	btfsc	status,2,c
  2409   0050EE  EF7B  F028         	goto	u2421
  2410   0050F2  EF7D  F028         	goto	u2420
  2411   0050F6                     u2421:
  2412   0050F6  EF81  F028         	goto	l2427
  2413   0050FA                     u2420:
  2414   0050FA  6C05               	negf	___awmod@dividend^0,c
  2415   0050FC  1E06               	comf	(___awmod@dividend+1)^0,f,c
  2416   0050FE  B0D8               	btfsc	status,0,c
  2417   005100  2A06               	incf	(___awmod@dividend+1)^0,f,c
  2418   005102                     l2427:
  2419   005102  C005  F005         	movff	___awmod@dividend,?___awmod
  2420   005106  C006  F006         	movff	___awmod@dividend+1,?___awmod+1
  2421   00510A  0012               	return		;funcret
  2422   00510C                     __end_of___awmod:
  2423                           	callstack 0
  2424                           
  2425 ;; *************** function ___awdiv *****************
  2426 ;; Defined at:
  2427 ;;		line 7 in file "C:\Program Files\Microchip\xc8\v3.00\pic\sources\c99\common\awdiv.c"
  2428 ;; Parameters:    Size  Location     Type
  2429 ;;  dividend        2    4[COMRAM] int 
  2430 ;;  divisor         2    6[COMRAM] int 
  2431 ;; Auto vars:     Size  Location     Type
  2432 ;;  quotient        2   10[COMRAM] int 
  2433 ;;  sign            1    9[COMRAM] unsigned char 
  2434 ;;  counter         1    8[COMRAM] unsigned char 
  2435 ;; Return value:  Size  Location     Type
  2436 ;;                  2    4[COMRAM] int 
  2437 ;; Registers used:
  2438 ;;		wreg, status,2, status,0
  2439 ;; Tracked objects:
  2440 ;;		On entry : 0/0
  2441 ;;		On exit  : 0/0
  2442 ;;		Unchanged: 0/0
  2443 ;; Data sizes:     COMRAM   BANK0   BANK1   BANK2   BANK3   BANK4   BANK5   BANK6   BANK7   BANK8   BANK9  BANK10  BANK1
      +1  BANK12  BANK13  BANK14  BANK15  BANK16  BANK17  BANK18  BANK19  BANK20  BANK21  BANK22  BANK23  BANK24  BANK25  BANK2
      +6  BANK27  BANK28  BANK29  BANK30  BANK31
  2444 ;;      Params:         4       0       0       0       0       0       0       0       0       0       0       0       
      +0       0       0       0       0       0       0       0       0       0       0       0       0       0       0       
      +0       0       0       0       0       0
  2445 ;;      Locals:         4       0       0       0       0       0       0       0       0       0       0       0       
      +0       0       0       0       0       0       0       0       0       0       0       0       0       0       0       
      +0       0       0       0       0       0
  2446 ;;      Temps:          0       0       0       0       0       0       0       0       0       0       0       0       
      +0       0       0       0       0       0       0       0       0       0       0       0       0       0       0       
      +0       0       0       0       0       0
  2447 ;;      Totals:         8       0       0       0       0       0       0       0       0       0       0       0       
      +0       0       0       0       0       0       0       0       0       0       0       0       0       0       0       
      +0       0       0       0       0       0
  2448 ;;Total ram usage:        8 bytes
  2449 ;; Hardware stack levels used: 1
  2450 ;; Hardware stack levels required when called: 1
  2451 ;; This function calls:
  2452 ;;		Nothing
  2453 ;; This function is called by:
  2454 ;;		_vfpfcnvrt
  2455 ;; This function uses a non-reentrant model
  2456 ;;
  2457                           
  2458                           	psect	text9
  2459   004F9C                     __ptext9:
  2460                           	callstack 0
  2461   004F9C                     ___awdiv:
  2462                           	callstack 26
  2463   004F9C  6A0A               	clrf	___awdiv@sign^0,c
  2464   004F9E  BE08               	btfsc	(___awdiv@divisor+1)^0,7,c
  2465   004FA0  EFD6  F027         	goto	u2310
  2466   004FA4  EFD4  F027         	goto	u2311
  2467   004FA8                     u2311:
  2468   004FA8  EFDC  F027         	goto	l2359
  2469   004FAC                     u2310:
  2470   004FAC  6C07               	negf	___awdiv@divisor^0,c
  2471   004FAE  1E08               	comf	(___awdiv@divisor+1)^0,f,c
  2472   004FB0  B0D8               	btfsc	status,0,c
  2473   004FB2  2A08               	incf	(___awdiv@divisor+1)^0,f,c
  2474   004FB4  0E01               	movlw	1
  2475   004FB6  6E0A               	movwf	___awdiv@sign^0,c
  2476   004FB8                     l2359:
  2477   004FB8  BE06               	btfsc	(___awdiv@dividend+1)^0,7,c
  2478   004FBA  EFE3  F027         	goto	u2320
  2479   004FBE  EFE1  F027         	goto	u2321
  2480   004FC2                     u2321:
  2481   004FC2  EFE9  F027         	goto	l2365
  2482   004FC6                     u2320:
  2483   004FC6  6C05               	negf	___awdiv@dividend^0,c
  2484   004FC8  1E06               	comf	(___awdiv@dividend+1)^0,f,c
  2485   004FCA  B0D8               	btfsc	status,0,c
  2486   004FCC  2A06               	incf	(___awdiv@dividend+1)^0,f,c
  2487   004FCE  0E01               	movlw	1
  2488   004FD0  1A0A               	xorwf	___awdiv@sign^0,f,c
  2489   004FD2                     l2365:
  2490   004FD2  0E00               	movlw	0
  2491   004FD4  6E0C               	movwf	(___awdiv@quotient+1)^0,c
  2492   004FD6  0E00               	movlw	0
  2493   004FD8  6E0B               	movwf	___awdiv@quotient^0,c
  2494   004FDA  5007               	movf	___awdiv@divisor^0,w,c
  2495   004FDC  1008               	iorwf	(___awdiv@divisor+1)^0,w,c
  2496   004FDE  B4D8               	btfsc	status,2,c
  2497   004FE0  EFF4  F027         	goto	u2331
  2498   004FE4  EFF6  F027         	goto	u2330
  2499   004FE8                     u2331:
  2500   004FE8  EF1E  F028         	goto	l2387
  2501   004FEC                     u2330:
  2502   004FEC  0E01               	movlw	1
  2503   004FEE  6E09               	movwf	___awdiv@counter^0,c
  2504   004FF0  EFFE  F027         	goto	l2373
  2505   004FF4                     l2371:
  2506   004FF4  90D8               	bcf	status,0,c
  2507   004FF6  3607               	rlcf	___awdiv@divisor^0,f,c
  2508   004FF8  3608               	rlcf	(___awdiv@divisor+1)^0,f,c
  2509   004FFA  2A09               	incf	___awdiv@counter^0,f,c
  2510   004FFC                     l2373:
  2511   004FFC  AE08               	btfss	(___awdiv@divisor+1)^0,7,c
  2512   004FFE  EF03  F028         	goto	u2341
  2513   005002  EF05  F028         	goto	u2340
  2514   005006                     u2341:
  2515   005006  EFFA  F027         	goto	l2371
  2516   00500A                     u2340:
  2517   00500A                     l2375:
  2518   00500A  90D8               	bcf	status,0,c
  2519   00500C  360B               	rlcf	___awdiv@quotient^0,f,c
  2520   00500E  360C               	rlcf	(___awdiv@quotient+1)^0,f,c
  2521   005010  5007               	movf	___awdiv@divisor^0,w,c
  2522   005012  5C05               	subwf	___awdiv@dividend^0,w,c
  2523   005014  5008               	movf	(___awdiv@divisor+1)^0,w,c
  2524   005016  5806               	subwfb	(___awdiv@dividend+1)^0,w,c
  2525   005018  A0D8               	btfss	status,0,c
  2526   00501A  EF11  F028         	goto	u2351
  2527   00501E  EF13  F028         	goto	u2350
  2528   005022                     u2351:
  2529   005022  EF18  F028         	goto	l2383
  2530   005026                     u2350:
  2531   005026  5007               	movf	___awdiv@divisor^0,w,c
  2532   005028  5E05               	subwf	___awdiv@dividend^0,f,c
  2533   00502A  5008               	movf	(___awdiv@divisor+1)^0,w,c
  2534   00502C  5A06               	subwfb	(___awdiv@dividend+1)^0,f,c
  2535   00502E  800B               	bsf	___awdiv@quotient^0,0,c
  2536   005030                     l2383:
  2537   005030  90D8               	bcf	status,0,c
  2538   005032  3208               	rrcf	(___awdiv@divisor+1)^0,f,c
  2539   005034  3207               	rrcf	___awdiv@divisor^0,f,c
  2540   005036  2E09               	decfsz	___awdiv@counter^0,f,c
  2541   005038  EF05  F028         	goto	l2375
  2542   00503C                     l2387:
  2543   00503C  500A               	movf	___awdiv@sign^0,w,c
  2544   00503E  B4D8               	btfsc	status,2,c
  2545   005040  EF24  F028         	goto	u2361
  2546   005044  EF26  F028         	goto	u2360
  2547   005048                     u2361:
  2548   005048  EF2A  F028         	goto	l2391
  2549   00504C                     u2360:
  2550   00504C  6C0B               	negf	___awdiv@quotient^0,c
  2551   00504E  1E0C               	comf	(___awdiv@quotient+1)^0,f,c
  2552   005050  B0D8               	btfsc	status,0,c
  2553   005052  2A0C               	incf	(___awdiv@quotient+1)^0,f,c
  2554   005054                     l2391:
  2555   005054  C00B  F005         	movff	___awdiv@quotient,?___awdiv
  2556   005058  C00C  F006         	movff	___awdiv@quotient+1,?___awdiv+1
  2557   00505C  0012               	return		;funcret
  2558   00505E                     __end_of___awdiv:
  2559                           	callstack 0
  2560                           
  2561 ;; *************** function ___xxtofl *****************
  2562 ;; Defined at:
  2563 ;;		line 10 in file "C:\Program Files\Microchip\xc8\v3.00\pic\sources\c99\common\xxtofl.c"
  2564 ;; Parameters:    Size  Location     Type
  2565 ;;  sign            1    wreg     unsigned char 
  2566 ;;  val             4    4[COMRAM] long 
  2567 ;; Auto vars:     Size  Location     Type
  2568 ;;  sign            1   12[COMRAM] unsigned char 
  2569 ;;  arg             4   14[COMRAM] unsigned long 
  2570 ;;  exp             1   13[COMRAM] unsigned char 
  2571 ;; Return value:  Size  Location     Type
  2572 ;;                  4    4[COMRAM] unsigned char 
  2573 ;; Registers used:
  2574 ;;		wreg, status,2, status,0
  2575 ;; Tracked objects:
  2576 ;;		On entry : 0/0
  2577 ;;		On exit  : 0/0
  2578 ;;		Unchanged: 0/0
  2579 ;; Data sizes:     COMRAM   BANK0   BANK1   BANK2   BANK3   BANK4   BANK5   BANK6   BANK7   BANK8   BANK9  BANK10  BANK1
      +1  BANK12  BANK13  BANK14  BANK15  BANK16  BANK17  BANK18  BANK19  BANK20  BANK21  BANK22  BANK23  BANK24  BANK25  BANK2
      +6  BANK27  BANK28  BANK29  BANK30  BANK31
  2580 ;;      Params:         4       0       0       0       0       0       0       0       0       0       0       0       
      +0       0       0       0       0       0       0       0       0       0       0       0       0       0       0       
      +0       0       0       0       0       0
  2581 ;;      Locals:         6       0       0       0       0       0       0       0       0       0       0       0       
      +0       0       0       0       0       0       0       0       0       0       0       0       0       0       0       
      +0       0       0       0       0       0
  2582 ;;      Temps:          4       0       0       0       0       0       0       0       0       0       0       0       
      +0       0       0       0       0       0       0       0       0       0       0       0       0       0       0       
      +0       0       0       0       0       0
  2583 ;;      Totals:        14       0       0       0       0       0       0       0       0       0       0       0       
      +0       0       0       0       0       0       0       0       0       0       0       0       0       0       0       
      +0       0       0       0       0       0
  2584 ;;Total ram usage:       14 bytes
  2585 ;; Hardware stack levels used: 1
  2586 ;; Hardware stack levels required when called: 1
  2587 ;; This function calls:
  2588 ;;		Nothing
  2589 ;; This function is called by:
  2590 ;;		_main
  2591 ;; This function uses a non-reentrant model
  2592 ;;
  2593                           
  2594                           	psect	text10
  2595   004B76                     __ptext10:
  2596                           	callstack 0
  2597   004B76                     ___xxtofl:
  2598                           	callstack 29
  2599                           
  2600                           ;incstack = 0
  2601                           ;___xxtofl@sign stored from wreg
  2602   004B76  6E0D               	movwf	___xxtofl@sign^0,c
  2603   004B78  500D               	movf	___xxtofl@sign^0,w,c
  2604   004B7A  B4D8               	btfsc	status,2,c
  2605   004B7C  EFC2  F025         	goto	u3301
  2606   004B80  EFC4  F025         	goto	u3300
  2607   004B84                     u3301:
  2608   004B84  EFE6  F025         	goto	l799
  2609   004B88                     u3300:
  2610   004B88  BE08               	btfsc	(___xxtofl@val+3)^0,7,c
  2611   004B8A  EFCB  F025         	goto	u3310
  2612   004B8E  EFC9  F025         	goto	u3311
  2613   004B92                     u3311:
  2614   004B92  EFE6  F025         	goto	l799
  2615   004B96                     u3310:
  2616   004B96  C005  F009         	movff	___xxtofl@val,??___xxtofl
  2617   004B9A  C006  F00A         	movff	___xxtofl@val+1,??___xxtofl+1
  2618   004B9E  C007  F00B         	movff	___xxtofl@val+2,??___xxtofl+2
  2619   004BA2  C008  F00C         	movff	___xxtofl@val+3,??___xxtofl+3
  2620   004BA6  1E09               	comf	??___xxtofl^0,f,c
  2621   004BA8  1E0A               	comf	(??___xxtofl+1)^0,f,c
  2622   004BAA  1E0B               	comf	(??___xxtofl+2)^0,f,c
  2623   004BAC  1E0C               	comf	(??___xxtofl+3)^0,f,c
  2624   004BAE  2A09               	incf	??___xxtofl^0,f,c
  2625   004BB0  0E00               	movlw	0
  2626   004BB2  220A               	addwfc	(??___xxtofl+1)^0,f,c
  2627   004BB4  220B               	addwfc	(??___xxtofl+2)^0,f,c
  2628   004BB6  220C               	addwfc	(??___xxtofl+3)^0,f,c
  2629   004BB8  C009  F00F         	movff	??___xxtofl,___xxtofl@arg
  2630   004BBC  C00A  F010         	movff	??___xxtofl+1,___xxtofl@arg+1
  2631   004BC0  C00B  F011         	movff	??___xxtofl+2,___xxtofl@arg+2
  2632   004BC4  C00C  F012         	movff	??___xxtofl+3,___xxtofl@arg+3
  2633   004BC8  EFEE  F025         	goto	l2985
  2634   004BCC                     l799:
  2635   004BCC  C005  F00F         	movff	___xxtofl@val,___xxtofl@arg
  2636   004BD0  C006  F010         	movff	___xxtofl@val+1,___xxtofl@arg+1
  2637   004BD4  C007  F011         	movff	___xxtofl@val+2,___xxtofl@arg+2
  2638   004BD8  C008  F012         	movff	___xxtofl@val+3,___xxtofl@arg+3
  2639   004BDC                     l2985:
  2640   004BDC  5005               	movf	___xxtofl@val^0,w,c
  2641   004BDE  1006               	iorwf	(___xxtofl@val+1)^0,w,c
  2642   004BE0  1007               	iorwf	(___xxtofl@val+2)^0,w,c
  2643   004BE2  1008               	iorwf	(___xxtofl@val+3)^0,w,c
  2644   004BE4  A4D8               	btfss	status,2,c
  2645   004BE6  EFF7  F025         	goto	u3321
  2646   004BEA  EFF9  F025         	goto	u3320
  2647   004BEE                     u3321:
  2648   004BEE  EF03  F026         	goto	l2991
  2649   004BF2                     u3320:
  2650   004BF2  0E00               	movlw	0
  2651   004BF4  6E05               	movwf	?___xxtofl^0,c
  2652   004BF6  0E00               	movlw	0
  2653   004BF8  6E06               	movwf	(?___xxtofl+1)^0,c
  2654   004BFA  0E00               	movlw	0
  2655   004BFC  6E07               	movwf	(?___xxtofl+2)^0,c
  2656   004BFE  0E00               	movlw	0
  2657   004C00  6E08               	movwf	(?___xxtofl+3)^0,c
  2658   004C02  EF94  F026         	goto	l802
  2659   004C06                     l2991:
  2660   004C06  0E96               	movlw	150
  2661   004C08  6E0E               	movwf	___xxtofl@exp^0,c
  2662   004C0A  EF0D  F026         	goto	l2995
  2663   004C0E                     l2993:
  2664   004C0E  2A0E               	incf	___xxtofl@exp^0,f,c
  2665   004C10  90D8               	bcf	status,0,c
  2666   004C12  3212               	rrcf	(___xxtofl@arg+3)^0,f,c
  2667   004C14  3211               	rrcf	(___xxtofl@arg+2)^0,f,c
  2668   004C16  3210               	rrcf	(___xxtofl@arg+1)^0,f,c
  2669   004C18  320F               	rrcf	___xxtofl@arg^0,f,c
  2670   004C1A                     l2995:
  2671   004C1A  0E00               	movlw	0
  2672   004C1C  140F               	andwf	___xxtofl@arg^0,w,c
  2673   004C1E  6E09               	movwf	??___xxtofl^0,c
  2674   004C20  0E00               	movlw	0
  2675   004C22  1410               	andwf	(___xxtofl@arg+1)^0,w,c
  2676   004C24  6E0A               	movwf	(??___xxtofl+1)^0,c
  2677   004C26  0E00               	movlw	0
  2678   004C28  1411               	andwf	(___xxtofl@arg+2)^0,w,c
  2679   004C2A  6E0B               	movwf	(??___xxtofl+2)^0,c
  2680   004C2C  0EFE               	movlw	254
  2681   004C2E  1412               	andwf	(___xxtofl@arg+3)^0,w,c
  2682   004C30  6E0C               	movwf	(??___xxtofl+3)^0,c
  2683   004C32  5009               	movf	??___xxtofl^0,w,c
  2684   004C34  100A               	iorwf	(??___xxtofl+1)^0,w,c
  2685   004C36  100B               	iorwf	(??___xxtofl+2)^0,w,c
  2686   004C38  100C               	iorwf	(??___xxtofl+3)^0,w,c
  2687   004C3A  A4D8               	btfss	status,2,c
  2688   004C3C  EF22  F026         	goto	u3331
  2689   004C40  EF24  F026         	goto	u3330
  2690   004C44                     u3331:
  2691   004C44  EF07  F026         	goto	l2993
  2692   004C48                     u3330:
  2693   004C48  EF32  F026         	goto	l806
  2694   004C4C                     l2997:
  2695   004C4C  2A0E               	incf	___xxtofl@exp^0,f,c
  2696   004C4E  0E01               	movlw	1
  2697   004C50  260F               	addwf	___xxtofl@arg^0,f,c
  2698   004C52  0E00               	movlw	0
  2699   004C54  2210               	addwfc	(___xxtofl@arg+1)^0,f,c
  2700   004C56  2211               	addwfc	(___xxtofl@arg+2)^0,f,c
  2701   004C58  2212               	addwfc	(___xxtofl@arg+3)^0,f,c
  2702   004C5A  90D8               	bcf	status,0,c
  2703   004C5C  3212               	rrcf	(___xxtofl@arg+3)^0,f,c
  2704   004C5E  3211               	rrcf	(___xxtofl@arg+2)^0,f,c
  2705   004C60  3210               	rrcf	(___xxtofl@arg+1)^0,f,c
  2706   004C62  320F               	rrcf	___xxtofl@arg^0,f,c
  2707   004C64                     l806:
  2708   004C64  0E00               	movlw	0
  2709   004C66  140F               	andwf	___xxtofl@arg^0,w,c
  2710   004C68  6E09               	movwf	??___xxtofl^0,c
  2711   004C6A  0E00               	movlw	0
  2712   004C6C  1410               	andwf	(___xxtofl@arg+1)^0,w,c
  2713   004C6E  6E0A               	movwf	(??___xxtofl+1)^0,c
  2714   004C70  0E00               	movlw	0
  2715   004C72  1411               	andwf	(___xxtofl@arg+2)^0,w,c
  2716   004C74  6E0B               	movwf	(??___xxtofl+2)^0,c
  2717   004C76  0EFF               	movlw	255
  2718   004C78  1412               	andwf	(___xxtofl@arg+3)^0,w,c
  2719   004C7A  6E0C               	movwf	(??___xxtofl+3)^0,c
  2720   004C7C  5009               	movf	??___xxtofl^0,w,c
  2721   004C7E  100A               	iorwf	(??___xxtofl+1)^0,w,c
  2722   004C80  100B               	iorwf	(??___xxtofl+2)^0,w,c
  2723   004C82  100C               	iorwf	(??___xxtofl+3)^0,w,c
  2724   004C84  A4D8               	btfss	status,2,c
  2725   004C86  EF47  F026         	goto	u3341
  2726   004C8A  EF49  F026         	goto	u3340
  2727   004C8E                     u3341:
  2728   004C8E  EF26  F026         	goto	l2997
  2729   004C92                     u3340:
  2730   004C92  EF51  F026         	goto	l3005
  2731   004C96                     l3003:
  2732   004C96  060E               	decf	___xxtofl@exp^0,f,c
  2733   004C98  90D8               	bcf	status,0,c
  2734   004C9A  360F               	rlcf	___xxtofl@arg^0,f,c
  2735   004C9C  3610               	rlcf	(___xxtofl@arg+1)^0,f,c
  2736   004C9E  3611               	rlcf	(___xxtofl@arg+2)^0,f,c
  2737   004CA0  3612               	rlcf	(___xxtofl@arg+3)^0,f,c
  2738   004CA2                     l3005:
  2739   004CA2  BE11               	btfsc	(___xxtofl@arg+2)^0,7,c
  2740   004CA4  EF56  F026         	goto	u3351
  2741   004CA8  EF58  F026         	goto	u3350
  2742   004CAC                     u3351:
  2743   004CAC  EF60  F026         	goto	l813
  2744   004CB0                     u3350:
  2745   004CB0  0E02               	movlw	2
  2746   004CB2  600E               	cpfslt	___xxtofl@exp^0,c
  2747   004CB4  EF5E  F026         	goto	u3361
  2748   004CB8  EF60  F026         	goto	u3360
  2749   004CBC                     u3361:
  2750   004CBC  EF4B  F026         	goto	l3003
  2751   004CC0                     u3360:
  2752   004CC0                     l813:
  2753   004CC0  B00E               	btfsc	___xxtofl@exp^0,0,c
  2754   004CC2  EF65  F026         	goto	u3371
  2755   004CC6  EF67  F026         	goto	u3370
  2756   004CCA                     u3371:
  2757   004CCA  EF68  F026         	goto	l3011
  2758   004CCE                     u3370:
  2759   004CCE  9E11               	bcf	(___xxtofl@arg+2)^0,7,c
  2760   004CD0                     l3011:
  2761   004CD0  90D8               	bcf	status,0,c
  2762   004CD2  320E               	rrcf	___xxtofl@exp^0,f,c
  2763   004CD4  C00E  F009         	movff	___xxtofl@exp,??___xxtofl
  2764   004CD8  6A0A               	clrf	(??___xxtofl+1)^0,c
  2765   004CDA  6A0B               	clrf	(??___xxtofl+2)^0,c
  2766   004CDC  6A0C               	clrf	(??___xxtofl+3)^0,c
  2767   004CDE  C009  F00C         	movff	??___xxtofl,??___xxtofl+3
  2768   004CE2  6A0B               	clrf	(??___xxtofl+2)^0,c
  2769   004CE4  6A0A               	clrf	(??___xxtofl+1)^0,c
  2770   004CE6  6A09               	clrf	??___xxtofl^0,c
  2771   004CE8  5009               	movf	??___xxtofl^0,w,c
  2772   004CEA  120F               	iorwf	___xxtofl@arg^0,f,c
  2773   004CEC  500A               	movf	(??___xxtofl+1)^0,w,c
  2774   004CEE  1210               	iorwf	(___xxtofl@arg+1)^0,f,c
  2775   004CF0  500B               	movf	(??___xxtofl+2)^0,w,c
  2776   004CF2  1211               	iorwf	(___xxtofl@arg+2)^0,f,c
  2777   004CF4  500C               	movf	(??___xxtofl+3)^0,w,c
  2778   004CF6  1212               	iorwf	(___xxtofl@arg+3)^0,f,c
  2779   004CF8  500D               	movf	___xxtofl@sign^0,w,c
  2780   004CFA  B4D8               	btfsc	status,2,c
  2781   004CFC  EF82  F026         	goto	u3381
  2782   004D00  EF84  F026         	goto	u3380
  2783   004D04                     u3381:
  2784   004D04  EF8C  F026         	goto	l3021
  2785   004D08                     u3380:
  2786   004D08  BE08               	btfsc	(___xxtofl@val+3)^0,7,c
  2787   004D0A  EF8B  F026         	goto	u3390
  2788   004D0E  EF89  F026         	goto	u3391
  2789   004D12                     u3391:
  2790   004D12  EF8C  F026         	goto	l3021
  2791   004D16                     u3390:
  2792   004D16  8E12               	bsf	(___xxtofl@arg+3)^0,7,c
  2793   004D18                     l3021:
  2794   004D18  C00F  F005         	movff	___xxtofl@arg,?___xxtofl
  2795   004D1C  C010  F006         	movff	___xxtofl@arg+1,?___xxtofl+1
  2796   004D20  C011  F007         	movff	___xxtofl@arg+2,?___xxtofl+2
  2797   004D24  C012  F008         	movff	___xxtofl@arg+3,?___xxtofl+3
  2798   004D28                     l802:
  2799   004D28  0012               	return		;funcret
  2800   004D2A                     __end_of___xxtofl:
  2801                           	callstack 0
  2802                           
  2803 ;; *************** function ___fltol *****************
  2804 ;; Defined at:
  2805 ;;		line 43 in file "C:\Program Files\Microchip\xc8\v3.00\pic\sources\c99\common\fltol.c"
  2806 ;; Parameters:    Size  Location     Type
  2807 ;;  f1              4   59[COMRAM] unsigned char 
  2808 ;; Auto vars:     Size  Location     Type
  2809 ;;  exp1            1   68[COMRAM] unsigned char 
  2810 ;;  sign1           1   67[COMRAM] unsigned char 
  2811 ;; Return value:  Size  Location     Type
  2812 ;;                  4   59[COMRAM] long 
  2813 ;; Registers used:
  2814 ;;		wreg, status,2, status,0
  2815 ;; Tracked objects:
  2816 ;;		On entry : 0/0
  2817 ;;		On exit  : 0/0
  2818 ;;		Unchanged: 0/0
  2819 ;; Data sizes:     COMRAM   BANK0   BANK1   BANK2   BANK3   BANK4   BANK5   BANK6   BANK7   BANK8   BANK9  BANK10  BANK1
      +1  BANK12  BANK13  BANK14  BANK15  BANK16  BANK17  BANK18  BANK19  BANK20  BANK21  BANK22  BANK23  BANK24  BANK25  BANK2
      +6  BANK27  BANK28  BANK29  BANK30  BANK31
  2820 ;;      Params:         4       0       0       0       0       0       0       0       0       0       0       0       
      +0       0       0       0       0       0       0       0       0       0       0       0       0       0       0       
      +0       0       0       0       0       0
  2821 ;;      Locals:         2       0       0       0       0       0       0       0       0       0       0       0       
      +0       0       0       0       0       0       0       0       0       0       0       0       0       0       0       
      +0       0       0       0       0       0
  2822 ;;      Temps:          4       0       0       0       0       0       0       0       0       0       0       0       
      +0       0       0       0       0       0       0       0       0       0       0       0       0       0       0       
      +0       0       0       0       0       0
  2823 ;;      Totals:        10       0       0       0       0       0       0       0       0       0       0       0       
      +0       0       0       0       0       0       0       0       0       0       0       0       0       0       0       
      +0       0       0       0       0       0
  2824 ;;Total ram usage:       10 bytes
  2825 ;; Hardware stack levels used: 1
  2826 ;; Hardware stack levels required when called: 1
  2827 ;; This function calls:
  2828 ;;		Nothing
  2829 ;; This function is called by:
  2830 ;;		_main
  2831 ;; This function uses a non-reentrant model
  2832 ;;
  2833                           
  2834                           	psect	text11
  2835   004E96                     __ptext11:
  2836                           	callstack 0
  2837   004E96                     ___fltol:
  2838                           	callstack 29
  2839   004E96  343E               	rlcf	(___fltol@f1+2)^0,w,c
  2840   004E98  343F               	rlcf	(___fltol@f1+3)^0,w,c
  2841   004E9A  6E45               	movwf	___fltol@exp1^0,c
  2842   004E9C  5045               	movf	___fltol@exp1^0,w,c
  2843   004E9E  A4D8               	btfss	status,2,c
  2844   004EA0  EF54  F027         	goto	u3231
  2845   004EA4  EF56  F027         	goto	u3230
  2846   004EA8                     u3231:
  2847   004EA8  EF60  F027         	goto	l2941
  2848   004EAC                     u3230:
  2849   004EAC                     l2937:
  2850   004EAC  0E00               	movlw	0
  2851   004EAE  6E3C               	movwf	?___fltol^0,c
  2852   004EB0  0E00               	movlw	0
  2853   004EB2  6E3D               	movwf	(?___fltol+1)^0,c
  2854   004EB4  0E00               	movlw	0
  2855   004EB6  6E3E               	movwf	(?___fltol+2)^0,c
  2856   004EB8  0E00               	movlw	0
  2857   004EBA  6E3F               	movwf	(?___fltol+3)^0,c
  2858   004EBC  EFCD  F027         	goto	l441
  2859   004EC0                     l2941:
  2860   004EC0  C03C  F040         	movff	___fltol@f1,??___fltol
  2861   004EC4  C03D  F041         	movff	___fltol@f1+1,??___fltol+1
  2862   004EC8  C03E  F042         	movff	___fltol@f1+2,??___fltol+2
  2863   004ECC  C03F  F043         	movff	___fltol@f1+3,??___fltol+3
  2864   004ED0  0E20               	movlw	32
  2865   004ED2  EF70  F027         	goto	u3240
  2866   004ED6                     u3245:
  2867   004ED6  90D8               	bcf	status,0,c
  2868   004ED8  3243               	rrcf	(??___fltol+3)^0,f,c
  2869   004EDA  3242               	rrcf	(??___fltol+2)^0,f,c
  2870   004EDC  3241               	rrcf	(??___fltol+1)^0,f,c
  2871   004EDE  3240               	rrcf	??___fltol^0,f,c
  2872   004EE0                     u3240:
  2873   004EE0  2EE8               	decfsz	wreg,f,c
  2874   004EE2  EF6B  F027         	goto	u3245
  2875   004EE6  5040               	movf	??___fltol^0,w,c
  2876   004EE8  6E44               	movwf	___fltol@sign1^0,c
  2877   004EEA  8E3E               	bsf	(___fltol@f1+2)^0,7,c
  2878   004EEC  0EFF               	movlw	255
  2879   004EEE  163C               	andwf	___fltol@f1^0,f,c
  2880   004EF0  0EFF               	movlw	255
  2881   004EF2  163D               	andwf	(___fltol@f1+1)^0,f,c
  2882   004EF4  0EFF               	movlw	255
  2883   004EF6  163E               	andwf	(___fltol@f1+2)^0,f,c
  2884   004EF8  0E00               	movlw	0
  2885   004EFA  163F               	andwf	(___fltol@f1+3)^0,f,c
  2886   004EFC  0E96               	movlw	150
  2887   004EFE  5E45               	subwf	___fltol@exp1^0,f,c
  2888   004F00  BE45               	btfsc	___fltol@exp1^0,7,c
  2889   004F02  EF87  F027         	goto	u3250
  2890   004F06  EF85  F027         	goto	u3251
  2891   004F0A                     u3251:
  2892   004F0A  EF9D  F027         	goto	l2961
  2893   004F0E                     u3250:
  2894   004F0E  5045               	movf	___fltol@exp1^0,w,c
  2895   004F10  0A80               	xorlw	128
  2896   004F12  0F97               	addlw	151
  2897   004F14  B0D8               	btfsc	status,0,c
  2898   004F16  EF8F  F027         	goto	u3261
  2899   004F1A  EF91  F027         	goto	u3260
  2900   004F1E                     u3261:
  2901   004F1E  EF93  F027         	goto	l2957
  2902   004F22                     u3260:
  2903   004F22  EF56  F027         	goto	l2937
  2904   004F26                     l2957:
  2905   004F26  90D8               	bcf	status,0,c
  2906   004F28  323F               	rrcf	(___fltol@f1+3)^0,f,c
  2907   004F2A  323E               	rrcf	(___fltol@f1+2)^0,f,c
  2908   004F2C  323D               	rrcf	(___fltol@f1+1)^0,f,c
  2909   004F2E  323C               	rrcf	___fltol@f1^0,f,c
  2910   004F30  3E45               	incfsz	___fltol@exp1^0,f,c
  2911   004F32  EF93  F027         	goto	l2957
  2912   004F36  EFB5  F027         	goto	l2971
  2913   004F3A                     l2961:
  2914   004F3A  0E1F               	movlw	31
  2915   004F3C  6445               	cpfsgt	___fltol@exp1^0,c
  2916   004F3E  EFA3  F027         	goto	u3271
  2917   004F42  EFA5  F027         	goto	u3270
  2918   004F46                     u3271:
  2919   004F46  EFAD  F027         	goto	l2969
  2920   004F4A                     u3270:
  2921   004F4A  EF56  F027         	goto	l2937
  2922   004F4E                     l2967:
  2923   004F4E  90D8               	bcf	status,0,c
  2924   004F50  363C               	rlcf	___fltol@f1^0,f,c
  2925   004F52  363D               	rlcf	(___fltol@f1+1)^0,f,c
  2926   004F54  363E               	rlcf	(___fltol@f1+2)^0,f,c
  2927   004F56  363F               	rlcf	(___fltol@f1+3)^0,f,c
  2928   004F58  0645               	decf	___fltol@exp1^0,f,c
  2929   004F5A                     l2969:
  2930   004F5A  5045               	movf	___fltol@exp1^0,w,c
  2931   004F5C  A4D8               	btfss	status,2,c
  2932   004F5E  EFB3  F027         	goto	u3281
  2933   004F62  EFB5  F027         	goto	u3280
  2934   004F66                     u3281:
  2935   004F66  EFA7  F027         	goto	l2967
  2936   004F6A                     u3280:
  2937   004F6A                     l2971:
  2938   004F6A  5044               	movf	___fltol@sign1^0,w,c
  2939   004F6C  B4D8               	btfsc	status,2,c
  2940   004F6E  EFBB  F027         	goto	u3291
  2941   004F72  EFBD  F027         	goto	u3290
  2942   004F76                     u3291:
  2943   004F76  EFC5  F027         	goto	l2975
  2944   004F7A                     u3290:
  2945   004F7A  1E3F               	comf	(___fltol@f1+3)^0,f,c
  2946   004F7C  1E3E               	comf	(___fltol@f1+2)^0,f,c
  2947   004F7E  1E3D               	comf	(___fltol@f1+1)^0,f,c
  2948   004F80  6C3C               	negf	___fltol@f1^0,c
  2949   004F82  0E00               	movlw	0
  2950   004F84  223D               	addwfc	(___fltol@f1+1)^0,f,c
  2951   004F86  223E               	addwfc	(___fltol@f1+2)^0,f,c
  2952   004F88  223F               	addwfc	(___fltol@f1+3)^0,f,c
  2953   004F8A                     l2975:
  2954   004F8A  C03C  F03C         	movff	___fltol@f1,?___fltol
  2955   004F8E  C03D  F03D         	movff	___fltol@f1+1,?___fltol+1
  2956   004F92  C03E  F03E         	movff	___fltol@f1+2,?___fltol+2
  2957   004F96  C03F  F03F         	movff	___fltol@f1+3,?___fltol+3
  2958   004F9A                     l441:
  2959   004F9A  0012               	return		;funcret
  2960   004F9C                     __end_of___fltol:
  2961                           	callstack 0
  2962                           
  2963 ;; *************** function ___flmul *****************
  2964 ;; Defined at:
  2965 ;;		line 8 in file "C:\Program Files\Microchip\xc8\v3.00\pic\sources\c99\common\sprcmul.c"
  2966 ;; Parameters:    Size  Location     Type
  2967 ;;  b               4   18[COMRAM] long 
  2968 ;;  a               4   22[COMRAM] long 
  2969 ;; Auto vars:     Size  Location     Type
  2970 ;;  prod            4   37[COMRAM] struct .
  2971 ;;  grs             4   32[COMRAM] unsigned long 
  2972 ;;  temp            2   41[COMRAM] struct .
  2973 ;;  bexp            1   36[COMRAM] unsigned char 
  2974 ;;  aexp            1   31[COMRAM] unsigned char 
  2975 ;;  sign            1   30[COMRAM] unsigned char 
  2976 ;; Return value:  Size  Location     Type
  2977 ;;                  4   18[COMRAM] unsigned char 
  2978 ;; Registers used:
  2979 ;;		wreg, status,2, status,0, prodl, prodh
  2980 ;; Tracked objects:
  2981 ;;		On entry : 0/0
  2982 ;;		On exit  : 0/0
  2983 ;;		Unchanged: 0/0
  2984 ;; Data sizes:     COMRAM   BANK0   BANK1   BANK2   BANK3   BANK4   BANK5   BANK6   BANK7   BANK8   BANK9  BANK10  BANK1
      +1  BANK12  BANK13  BANK14  BANK15  BANK16  BANK17  BANK18  BANK19  BANK20  BANK21  BANK22  BANK23  BANK24  BANK25  BANK2
      +6  BANK27  BANK28  BANK29  BANK30  BANK31
  2985 ;;      Params:         8       0       0       0       0       0       0       0       0       0       0       0       
      +0       0       0       0       0       0       0       0       0       0       0       0       0       0       0       
      +0       0       0       0       0       0
  2986 ;;      Locals:        13       0       0       0       0       0       0       0       0       0       0       0       
      +0       0       0       0       0       0       0       0       0       0       0       0       0       0       0       
      +0       0       0       0       0       0
  2987 ;;      Temps:          4       0       0       0       0       0       0       0       0       0       0       0       
      +0       0       0       0       0       0       0       0       0       0       0       0       0       0       0       
      +0       0       0       0       0       0
  2988 ;;      Totals:        25       0       0       0       0       0       0       0       0       0       0       0       
      +0       0       0       0       0       0       0       0       0       0       0       0       0       0       0       
      +0       0       0       0       0       0
  2989 ;;Total ram usage:       25 bytes
  2990 ;; Hardware stack levels used: 1
  2991 ;; Hardware stack levels required when called: 1
  2992 ;; This function calls:
  2993 ;;		Nothing
  2994 ;; This function is called by:
  2995 ;;		_main
  2996 ;; This function uses a non-reentrant model
  2997 ;;
  2998                           
  2999                           	psect	text12
  3000   004568                     __ptext12:
  3001                           	callstack 0
  3002   004568                     ___flmul:
  3003                           	callstack 29
  3004   004568  5016               	movf	(___flmul@b+3)^0,w,c
  3005   00456A  0B80               	andlw	128
  3006   00456C  6E1F               	movwf	___flmul@sign^0,c
  3007   00456E  5016               	movf	(___flmul@b+3)^0,w,c
  3008   004570  2416               	addwf	(___flmul@b+3)^0,w,c
  3009   004572  6E25               	movwf	___flmul@bexp^0,c
  3010   004574  AE15               	btfss	(___flmul@b+2)^0,7,c
  3011   004576  EFBF  F022         	goto	u3041
  3012   00457A  EFC1  F022         	goto	u3040
  3013   00457E                     u3041:
  3014   00457E  EFC2  F022         	goto	l2813
  3015   004582                     u3040:
  3016   004582  8025               	bsf	___flmul@bexp^0,0,c
  3017   004584                     l2813:
  3018   004584  5025               	movf	___flmul@bexp^0,w,c
  3019   004586  B4D8               	btfsc	status,2,c
  3020   004588  EFC8  F022         	goto	u3051
  3021   00458C  EFCA  F022         	goto	u3050
  3022   004590                     u3051:
  3023   004590  EFDD  F022         	goto	l2821
  3024   004594                     u3050:
  3025   004594  2825               	incf	___flmul@bexp^0,w,c
  3026   004596  A4D8               	btfss	status,2,c
  3027   004598  EFD0  F022         	goto	u3061
  3028   00459C  EFD2  F022         	goto	u3060
  3029   0045A0                     u3061:
  3030   0045A0  EFDA  F022         	goto	l2819
  3031   0045A4                     u3060:
  3032   0045A4  0E00               	movlw	0
  3033   0045A6  6E13               	movwf	___flmul@b^0,c
  3034   0045A8  0E00               	movlw	0
  3035   0045AA  6E14               	movwf	(___flmul@b+1)^0,c
  3036   0045AC  0E00               	movlw	0
  3037   0045AE  6E15               	movwf	(___flmul@b+2)^0,c
  3038   0045B0  0E00               	movlw	0
  3039   0045B2  6E16               	movwf	(___flmul@b+3)^0,c
  3040   0045B4                     l2819:
  3041   0045B4  8E15               	bsf	(___flmul@b+2)^0,7,c
  3042   0045B6  EFE5  F022         	goto	l2823
  3043   0045BA                     l2821:
  3044   0045BA  0E00               	movlw	0
  3045   0045BC  6E13               	movwf	___flmul@b^0,c
  3046   0045BE  0E00               	movlw	0
  3047   0045C0  6E14               	movwf	(___flmul@b+1)^0,c
  3048   0045C2  0E00               	movlw	0
  3049   0045C4  6E15               	movwf	(___flmul@b+2)^0,c
  3050   0045C6  0E00               	movlw	0
  3051   0045C8  6E16               	movwf	(___flmul@b+3)^0,c
  3052   0045CA                     l2823:
  3053   0045CA  501A               	movf	(___flmul@a+3)^0,w,c
  3054   0045CC  0B80               	andlw	128
  3055   0045CE  1A1F               	xorwf	___flmul@sign^0,f,c
  3056   0045D0  501A               	movf	(___flmul@a+3)^0,w,c
  3057   0045D2  241A               	addwf	(___flmul@a+3)^0,w,c
  3058   0045D4  6E20               	movwf	___flmul@aexp^0,c
  3059   0045D6  AE19               	btfss	(___flmul@a+2)^0,7,c
  3060   0045D8  EFF0  F022         	goto	u3071
  3061   0045DC  EFF2  F022         	goto	u3070
  3062   0045E0                     u3071:
  3063   0045E0  EFF3  F022         	goto	l2831
  3064   0045E4                     u3070:
  3065   0045E4  8020               	bsf	___flmul@aexp^0,0,c
  3066   0045E6                     l2831:
  3067   0045E6  5020               	movf	___flmul@aexp^0,w,c
  3068   0045E8  B4D8               	btfsc	status,2,c
  3069   0045EA  EFF9  F022         	goto	u3081
  3070   0045EE  EFFB  F022         	goto	u3080
  3071   0045F2                     u3081:
  3072   0045F2  EF0E  F023         	goto	l2839
  3073   0045F6                     u3080:
  3074   0045F6  2820               	incf	___flmul@aexp^0,w,c
  3075   0045F8  A4D8               	btfss	status,2,c
  3076   0045FA  EF01  F023         	goto	u3091
  3077   0045FE  EF03  F023         	goto	u3090
  3078   004602                     u3091:
  3079   004602  EF0B  F023         	goto	l2837
  3080   004606                     u3090:
  3081   004606  0E00               	movlw	0
  3082   004608  6E17               	movwf	___flmul@a^0,c
  3083   00460A  0E00               	movlw	0
  3084   00460C  6E18               	movwf	(___flmul@a+1)^0,c
  3085   00460E  0E00               	movlw	0
  3086   004610  6E19               	movwf	(___flmul@a+2)^0,c
  3087   004612  0E00               	movlw	0
  3088   004614  6E1A               	movwf	(___flmul@a+3)^0,c
  3089   004616                     l2837:
  3090   004616  8E19               	bsf	(___flmul@a+2)^0,7,c
  3091   004618  EF16  F023         	goto	l758
  3092   00461C                     l2839:
  3093   00461C  0E00               	movlw	0
  3094   00461E  6E17               	movwf	___flmul@a^0,c
  3095   004620  0E00               	movlw	0
  3096   004622  6E18               	movwf	(___flmul@a+1)^0,c
  3097   004624  0E00               	movlw	0
  3098   004626  6E19               	movwf	(___flmul@a+2)^0,c
  3099   004628  0E00               	movlw	0
  3100   00462A  6E1A               	movwf	(___flmul@a+3)^0,c
  3101   00462C                     l758:
  3102   00462C  5020               	movf	___flmul@aexp^0,w,c
  3103   00462E  B4D8               	btfsc	status,2,c
  3104   004630  EF1C  F023         	goto	u3101
  3105   004634  EF1E  F023         	goto	u3100
  3106   004638                     u3101:
  3107   004638  EF26  F023         	goto	l2843
  3108   00463C                     u3100:
  3109   00463C  5025               	movf	___flmul@bexp^0,w,c
  3110   00463E  A4D8               	btfss	status,2,c
  3111   004640  EF24  F023         	goto	u3111
  3112   004644  EF26  F023         	goto	u3110
  3113   004648                     u3111:
  3114   004648  EF30  F023         	goto	l2847
  3115   00464C                     u3110:
  3116   00464C                     l2843:
  3117   00464C  0E00               	movlw	0
  3118   00464E  6E13               	movwf	?___flmul^0,c
  3119   004650  0E00               	movlw	0
  3120   004652  6E14               	movwf	(?___flmul+1)^0,c
  3121   004654  0E00               	movlw	0
  3122   004656  6E15               	movwf	(?___flmul+2)^0,c
  3123   004658  0E00               	movlw	0
  3124   00465A  6E16               	movwf	(?___flmul+3)^0,c
  3125   00465C  EFD8  F024         	goto	l762
  3126   004660                     l2847:
  3127   004660  5019               	movf	(___flmul@a+2)^0,w,c
  3128   004662  0213               	mulwf	___flmul@b^0,c
  3129   004664  006F FFCC  F02A    	movff	prodl,___flmul@temp
  3130   00466A  006F FFD0  F02B    	movff	prodh,___flmul@temp+1
  3131   004670  502A               	movf	___flmul@temp^0,w,c
  3132   004672  6E21               	movwf	___flmul@grs^0,c
  3133   004674  6A22               	clrf	(___flmul@grs+1)^0,c
  3134   004676  6A23               	clrf	(___flmul@grs+2)^0,c
  3135   004678  6A24               	clrf	(___flmul@grs+3)^0,c
  3136   00467A  502B               	movf	(___flmul@temp+1)^0,w,c
  3137   00467C  6E26               	movwf	___flmul@prod^0,c
  3138   00467E  6A27               	clrf	(___flmul@prod+1)^0,c
  3139   004680  6A28               	clrf	(___flmul@prod+2)^0,c
  3140   004682  6A29               	clrf	(___flmul@prod+3)^0,c
  3141   004684  5018               	movf	(___flmul@a+1)^0,w,c
  3142   004686  0214               	mulwf	(___flmul@b+1)^0,c
  3143   004688  006F FFCC  F02A    	movff	prodl,___flmul@temp
  3144   00468E  006F FFD0  F02B    	movff	prodh,___flmul@temp+1
  3145   004694  502A               	movf	___flmul@temp^0,w,c
  3146   004696  2621               	addwf	___flmul@grs^0,f,c
  3147   004698  0E00               	movlw	0
  3148   00469A  2222               	addwfc	(___flmul@grs+1)^0,f,c
  3149   00469C  2223               	addwfc	(___flmul@grs+2)^0,f,c
  3150   00469E  2224               	addwfc	(___flmul@grs+3)^0,f,c
  3151   0046A0  502B               	movf	(___flmul@temp+1)^0,w,c
  3152   0046A2  2626               	addwf	___flmul@prod^0,f,c
  3153   0046A4  0E00               	movlw	0
  3154   0046A6  2227               	addwfc	(___flmul@prod+1)^0,f,c
  3155   0046A8  2228               	addwfc	(___flmul@prod+2)^0,f,c
  3156   0046AA  2229               	addwfc	(___flmul@prod+3)^0,f,c
  3157   0046AC  5017               	movf	___flmul@a^0,w,c
  3158   0046AE  0215               	mulwf	(___flmul@b+2)^0,c
  3159   0046B0  006F FFCC  F02A    	movff	prodl,___flmul@temp
  3160   0046B6  006F FFD0  F02B    	movff	prodh,___flmul@temp+1
  3161   0046BC  502A               	movf	___flmul@temp^0,w,c
  3162   0046BE  2621               	addwf	___flmul@grs^0,f,c
  3163   0046C0  0E00               	movlw	0
  3164   0046C2  2222               	addwfc	(___flmul@grs+1)^0,f,c
  3165   0046C4  2223               	addwfc	(___flmul@grs+2)^0,f,c
  3166   0046C6  2224               	addwfc	(___flmul@grs+3)^0,f,c
  3167   0046C8  502B               	movf	(___flmul@temp+1)^0,w,c
  3168   0046CA  2626               	addwf	___flmul@prod^0,f,c
  3169   0046CC  0E00               	movlw	0
  3170   0046CE  2227               	addwfc	(___flmul@prod+1)^0,f,c
  3171   0046D0  2228               	addwfc	(___flmul@prod+2)^0,f,c
  3172   0046D2  2229               	addwfc	(___flmul@prod+3)^0,f,c
  3173   0046D4  C023  F024         	movff	___flmul@grs+2,___flmul@grs+3
  3174   0046D8  C022  F023         	movff	___flmul@grs+1,___flmul@grs+2
  3175   0046DC  C021  F022         	movff	___flmul@grs,___flmul@grs+1
  3176   0046E0  6A21               	clrf	___flmul@grs^0,c
  3177   0046E2  5017               	movf	___flmul@a^0,w,c
  3178   0046E4  0214               	mulwf	(___flmul@b+1)^0,c
  3179   0046E6  006F FFCC  F02A    	movff	prodl,___flmul@temp
  3180   0046EC  006F FFD0  F02B    	movff	prodh,___flmul@temp+1
  3181   0046F2  502A               	movf	___flmul@temp^0,w,c
  3182   0046F4  2621               	addwf	___flmul@grs^0,f,c
  3183   0046F6  502B               	movf	(___flmul@temp+1)^0,w,c
  3184   0046F8  2222               	addwfc	(___flmul@grs+1)^0,f,c
  3185   0046FA  0E00               	movlw	0
  3186   0046FC  2223               	addwfc	(___flmul@grs+2)^0,f,c
  3187   0046FE  0E00               	movlw	0
  3188   004700  2224               	addwfc	(___flmul@grs+3)^0,f,c
  3189   004702  5018               	movf	(___flmul@a+1)^0,w,c
  3190   004704  0213               	mulwf	___flmul@b^0,c
  3191   004706  006F FFCC  F02A    	movff	prodl,___flmul@temp
  3192   00470C  006F FFD0  F02B    	movff	prodh,___flmul@temp+1
  3193   004712  502A               	movf	___flmul@temp^0,w,c
  3194   004714  2621               	addwf	___flmul@grs^0,f,c
  3195   004716  502B               	movf	(___flmul@temp+1)^0,w,c
  3196   004718  2222               	addwfc	(___flmul@grs+1)^0,f,c
  3197   00471A  0E00               	movlw	0
  3198   00471C  2223               	addwfc	(___flmul@grs+2)^0,f,c
  3199   00471E  0E00               	movlw	0
  3200   004720  2224               	addwfc	(___flmul@grs+3)^0,f,c
  3201   004722  C023  F024         	movff	___flmul@grs+2,___flmul@grs+3
  3202   004726  C022  F023         	movff	___flmul@grs+1,___flmul@grs+2
  3203   00472A  C021  F022         	movff	___flmul@grs,___flmul@grs+1
  3204   00472E  6A21               	clrf	___flmul@grs^0,c
  3205   004730  5017               	movf	___flmul@a^0,w,c
  3206   004732  0213               	mulwf	___flmul@b^0,c
  3207   004734  006F FFCC  F02A    	movff	prodl,___flmul@temp
  3208   00473A  006F FFD0  F02B    	movff	prodh,___flmul@temp+1
  3209   004740  502A               	movf	___flmul@temp^0,w,c
  3210   004742  2621               	addwf	___flmul@grs^0,f,c
  3211   004744  502B               	movf	(___flmul@temp+1)^0,w,c
  3212   004746  2222               	addwfc	(___flmul@grs+1)^0,f,c
  3213   004748  0E00               	movlw	0
  3214   00474A  2223               	addwfc	(___flmul@grs+2)^0,f,c
  3215   00474C  0E00               	movlw	0
  3216   00474E  2224               	addwfc	(___flmul@grs+3)^0,f,c
  3217   004750  5019               	movf	(___flmul@a+2)^0,w,c
  3218   004752  0214               	mulwf	(___flmul@b+1)^0,c
  3219   004754  006F FFCC  F02A    	movff	prodl,___flmul@temp
  3220   00475A  006F FFD0  F02B    	movff	prodh,___flmul@temp+1
  3221   004760  502A               	movf	___flmul@temp^0,w,c
  3222   004762  2626               	addwf	___flmul@prod^0,f,c
  3223   004764  502B               	movf	(___flmul@temp+1)^0,w,c
  3224   004766  2227               	addwfc	(___flmul@prod+1)^0,f,c
  3225   004768  0E00               	movlw	0
  3226   00476A  2228               	addwfc	(___flmul@prod+2)^0,f,c
  3227   00476C  0E00               	movlw	0
  3228   00476E  2229               	addwfc	(___flmul@prod+3)^0,f,c
  3229   004770  5018               	movf	(___flmul@a+1)^0,w,c
  3230   004772  0215               	mulwf	(___flmul@b+2)^0,c
  3231   004774  006F FFCC  F02A    	movff	prodl,___flmul@temp
  3232   00477A  006F FFD0  F02B    	movff	prodh,___flmul@temp+1
  3233   004780  502A               	movf	___flmul@temp^0,w,c
  3234   004782  2626               	addwf	___flmul@prod^0,f,c
  3235   004784  502B               	movf	(___flmul@temp+1)^0,w,c
  3236   004786  2227               	addwfc	(___flmul@prod+1)^0,f,c
  3237   004788  0E00               	movlw	0
  3238   00478A  2228               	addwfc	(___flmul@prod+2)^0,f,c
  3239   00478C  0E00               	movlw	0
  3240   00478E  2229               	addwfc	(___flmul@prod+3)^0,f,c
  3241   004790  5019               	movf	(___flmul@a+2)^0,w,c
  3242   004792  0215               	mulwf	(___flmul@b+2)^0,c
  3243   004794  006F FFCC  F02A    	movff	prodl,___flmul@temp
  3244   00479A  006F FFD0  F02B    	movff	prodh,___flmul@temp+1
  3245   0047A0  502A               	movf	___flmul@temp^0,w,c
  3246   0047A2  6E1B               	movwf	??___flmul^0,c
  3247   0047A4  502B               	movf	(___flmul@temp+1)^0,w,c
  3248   0047A6  6E1C               	movwf	(??___flmul+1)^0,c
  3249   0047A8  6A1D               	clrf	(??___flmul+2)^0,c
  3250   0047AA  6A1E               	clrf	(??___flmul+3)^0,c
  3251   0047AC  C01D  F01E         	movff	??___flmul+2,??___flmul+3
  3252   0047B0  C01C  F01D         	movff	??___flmul+1,??___flmul+2
  3253   0047B4  C01B  F01C         	movff	??___flmul,??___flmul+1
  3254   0047B8  6A1B               	clrf	??___flmul^0,c
  3255   0047BA  501B               	movf	??___flmul^0,w,c
  3256   0047BC  2626               	addwf	___flmul@prod^0,f,c
  3257   0047BE  501C               	movf	(??___flmul+1)^0,w,c
  3258   0047C0  2227               	addwfc	(___flmul@prod+1)^0,f,c
  3259   0047C2  501D               	movf	(??___flmul+2)^0,w,c
  3260   0047C4  2228               	addwfc	(___flmul@prod+2)^0,f,c
  3261   0047C6  501E               	movf	(??___flmul+3)^0,w,c
  3262   0047C8  2229               	addwfc	(___flmul@prod+3)^0,f,c
  3263   0047CA  C021  F01B         	movff	___flmul@grs,??___flmul
  3264   0047CE  C022  F01C         	movff	___flmul@grs+1,??___flmul+1
  3265   0047D2  C023  F01D         	movff	___flmul@grs+2,??___flmul+2
  3266   0047D6  C024  F01E         	movff	___flmul@grs+3,??___flmul+3
  3267   0047DA  0E19               	movlw	25
  3268   0047DC  EFF5  F023         	goto	u3120
  3269   0047E0                     u3125:
  3270   0047E0  90D8               	bcf	status,0,c
  3271   0047E2  321E               	rrcf	(??___flmul+3)^0,f,c
  3272   0047E4  321D               	rrcf	(??___flmul+2)^0,f,c
  3273   0047E6  321C               	rrcf	(??___flmul+1)^0,f,c
  3274   0047E8  321B               	rrcf	??___flmul^0,f,c
  3275   0047EA                     u3120:
  3276   0047EA  2EE8               	decfsz	wreg,f,c
  3277   0047EC  EFF0  F023         	goto	u3125
  3278   0047F0  501B               	movf	??___flmul^0,w,c
  3279   0047F2  2626               	addwf	___flmul@prod^0,f,c
  3280   0047F4  501C               	movf	(??___flmul+1)^0,w,c
  3281   0047F6  2227               	addwfc	(___flmul@prod+1)^0,f,c
  3282   0047F8  501D               	movf	(??___flmul+2)^0,w,c
  3283   0047FA  2228               	addwfc	(___flmul@prod+2)^0,f,c
  3284   0047FC  501E               	movf	(??___flmul+3)^0,w,c
  3285   0047FE  2229               	addwfc	(___flmul@prod+3)^0,f,c
  3286   004800  C023  F024         	movff	___flmul@grs+2,___flmul@grs+3
  3287   004804  C022  F023         	movff	___flmul@grs+1,___flmul@grs+2
  3288   004808  C021  F022         	movff	___flmul@grs,___flmul@grs+1
  3289   00480C  6A21               	clrf	___flmul@grs^0,c
  3290   00480E  5020               	movf	___flmul@aexp^0,w,c
  3291   004810  C025  F01B         	movff	___flmul@bexp,??___flmul
  3292   004814  6A1C               	clrf	(??___flmul+1)^0,c
  3293   004816  261B               	addwf	??___flmul^0,f,c
  3294   004818  0E00               	movlw	0
  3295   00481A  221C               	addwfc	(??___flmul+1)^0,f,c
  3296   00481C  0E82               	movlw	130
  3297   00481E  241B               	addwf	??___flmul^0,w,c
  3298   004820  6E2A               	movwf	___flmul@temp^0,c
  3299   004822  0EFF               	movlw	255
  3300   004824  201C               	addwfc	(??___flmul+1)^0,w,c
  3301   004826  6E2B               	movwf	(___flmul@temp+1)^0,c
  3302   004828  EF2B  F024         	goto	l2895
  3303   00482C                     l2889:
  3304   00482C  90D8               	bcf	status,0,c
  3305   00482E  3626               	rlcf	___flmul@prod^0,f,c
  3306   004830  3627               	rlcf	(___flmul@prod+1)^0,f,c
  3307   004832  3628               	rlcf	(___flmul@prod+2)^0,f,c
  3308   004834  3629               	rlcf	(___flmul@prod+3)^0,f,c
  3309   004836  AE24               	btfss	(___flmul@grs+3)^0,7,c
  3310   004838  EF20  F024         	goto	u3131
  3311   00483C  EF22  F024         	goto	u3130
  3312   004840                     u3131:
  3313   004840  EF23  F024         	goto	l765
  3314   004844                     u3130:
  3315   004844  8026               	bsf	___flmul@prod^0,0,c
  3316   004846                     l765:
  3317   004846  90D8               	bcf	status,0,c
  3318   004848  3621               	rlcf	___flmul@grs^0,f,c
  3319   00484A  3622               	rlcf	(___flmul@grs+1)^0,f,c
  3320   00484C  3623               	rlcf	(___flmul@grs+2)^0,f,c
  3321   00484E  3624               	rlcf	(___flmul@grs+3)^0,f,c
  3322   004850  062A               	decf	___flmul@temp^0,f,c
  3323   004852  A0D8               	btfss	status,0,c
  3324   004854  062B               	decf	(___flmul@temp+1)^0,f,c
  3325   004856                     l2895:
  3326   004856  AE28               	btfss	(___flmul@prod+2)^0,7,c
  3327   004858  EF30  F024         	goto	u3141
  3328   00485C  EF32  F024         	goto	u3140
  3329   004860                     u3141:
  3330   004860  EF16  F024         	goto	l2889
  3331   004864                     u3140:
  3332   004864  6A20               	clrf	___flmul@aexp^0,c
  3333   004866  AE24               	btfss	(___flmul@grs+3)^0,7,c
  3334   004868  EF38  F024         	goto	u3151
  3335   00486C  EF3A  F024         	goto	u3150
  3336   004870                     u3151:
  3337   004870  EF5E  F024         	goto	l767
  3338   004874                     u3150:
  3339   004874  0EFF               	movlw	255
  3340   004876  1421               	andwf	___flmul@grs^0,w,c
  3341   004878  6E1B               	movwf	??___flmul^0,c
  3342   00487A  0EFF               	movlw	255
  3343   00487C  1422               	andwf	(___flmul@grs+1)^0,w,c
  3344   00487E  6E1C               	movwf	(??___flmul+1)^0,c
  3345   004880  0EFF               	movlw	255
  3346   004882  1423               	andwf	(___flmul@grs+2)^0,w,c
  3347   004884  6E1D               	movwf	(??___flmul+2)^0,c
  3348   004886  0E7F               	movlw	127
  3349   004888  1424               	andwf	(___flmul@grs+3)^0,w,c
  3350   00488A  6E1E               	movwf	(??___flmul+3)^0,c
  3351   00488C  501B               	movf	??___flmul^0,w,c
  3352   00488E  101C               	iorwf	(??___flmul+1)^0,w,c
  3353   004890  101D               	iorwf	(??___flmul+2)^0,w,c
  3354   004892  101E               	iorwf	(??___flmul+3)^0,w,c
  3355   004894  B4D8               	btfsc	status,2,c
  3356   004896  EF4F  F024         	goto	u3161
  3357   00489A  EF51  F024         	goto	u3160
  3358   00489E                     u3161:
  3359   00489E  EF55  F024         	goto	l768
  3360   0048A2                     u3160:
  3361   0048A2                     l2899:
  3362   0048A2  0E01               	movlw	1
  3363   0048A4  6E20               	movwf	___flmul@aexp^0,c
  3364   0048A6  EF5E  F024         	goto	l767
  3365   0048AA                     l768:
  3366   0048AA  A026               	btfss	___flmul@prod^0,0,c
  3367   0048AC  EF5A  F024         	goto	u3171
  3368   0048B0  EF5C  F024         	goto	u3170
  3369   0048B4                     u3171:
  3370   0048B4  EF5E  F024         	goto	l767
  3371   0048B8                     u3170:
  3372   0048B8  EF51  F024         	goto	l2899
  3373   0048BC                     l767:
  3374   0048BC  5020               	movf	___flmul@aexp^0,w,c
  3375   0048BE  B4D8               	btfsc	status,2,c
  3376   0048C0  EF64  F024         	goto	u3181
  3377   0048C4  EF66  F024         	goto	u3180
  3378   0048C8                     u3181:
  3379   0048C8  EF8A  F024         	goto	l2911
  3380   0048CC                     u3180:
  3381   0048CC  0E01               	movlw	1
  3382   0048CE  2626               	addwf	___flmul@prod^0,f,c
  3383   0048D0  0E00               	movlw	0
  3384   0048D2  2227               	addwfc	(___flmul@prod+1)^0,f,c
  3385   0048D4  2228               	addwfc	(___flmul@prod+2)^0,f,c
  3386   0048D6  2229               	addwfc	(___flmul@prod+3)^0,f,c
  3387   0048D8  A029               	btfss	(___flmul@prod+3)^0,0,c
  3388   0048DA  EF71  F024         	goto	u3191
  3389   0048DE  EF73  F024         	goto	u3190
  3390   0048E2                     u3191:
  3391   0048E2  EF8A  F024         	goto	l2911
  3392   0048E6                     u3190:
  3393   0048E6  C026  F01B         	movff	___flmul@prod,??___flmul
  3394   0048EA  C027  F01C         	movff	___flmul@prod+1,??___flmul+1
  3395   0048EE  C028  F01D         	movff	___flmul@prod+2,??___flmul+2
  3396   0048F2  C029  F01E         	movff	___flmul@prod+3,??___flmul+3
  3397   0048F6  341E               	rlcf	(??___flmul+3)^0,w,c
  3398   0048F8  321E               	rrcf	(??___flmul+3)^0,f,c
  3399   0048FA  321D               	rrcf	(??___flmul+2)^0,f,c
  3400   0048FC  321C               	rrcf	(??___flmul+1)^0,f,c
  3401   0048FE  321B               	rrcf	??___flmul^0,f,c
  3402   004900  C01B  F026         	movff	??___flmul,___flmul@prod
  3403   004904  C01C  F027         	movff	??___flmul+1,___flmul@prod+1
  3404   004908  C01D  F028         	movff	??___flmul+2,___flmul@prod+2
  3405   00490C  C01E  F029         	movff	??___flmul+3,___flmul@prod+3
  3406   004910  4A2A               	infsnz	___flmul@temp^0,f,c
  3407   004912  2A2B               	incf	(___flmul@temp+1)^0,f,c
  3408   004914                     l2911:
  3409   004914  BE2B               	btfsc	(___flmul@temp+1)^0,7,c
  3410   004916  EF95  F024         	goto	u3201
  3411   00491A  502B               	movf	(___flmul@temp+1)^0,w,c
  3412   00491C  E108               	bnz	u3200
  3413   00491E  282A               	incf	___flmul@temp^0,w,c
  3414   004920  A0D8               	btfss	status,0,c
  3415   004922  EF95  F024         	goto	u3201
  3416   004926  EF97  F024         	goto	u3200
  3417   00492A                     u3201:
  3418   00492A  EFA1  F024         	goto	l2915
  3419   00492E                     u3200:
  3420   00492E  0E00               	movlw	0
  3421   004930  6E26               	movwf	___flmul@prod^0,c
  3422   004932  0E00               	movlw	0
  3423   004934  6E27               	movwf	(___flmul@prod+1)^0,c
  3424   004936  0E80               	movlw	128
  3425   004938  6E28               	movwf	(___flmul@prod+2)^0,c
  3426   00493A  0E7F               	movlw	127
  3427   00493C  6E29               	movwf	(___flmul@prod+3)^0,c
  3428   00493E  EFCE  F024         	goto	l2929
  3429   004942                     l2915:
  3430   004942  BE2B               	btfsc	(___flmul@temp+1)^0,7,c
  3431   004944  EFAE  F024         	goto	u3210
  3432   004948  502B               	movf	(___flmul@temp+1)^0,w,c
  3433   00494A  E106               	bnz	u3211
  3434   00494C  042A               	decf	___flmul@temp^0,w,c
  3435   00494E  B0D8               	btfsc	status,0,c
  3436   004950  EFAC  F024         	goto	u3211
  3437   004954  EFAE  F024         	goto	u3210
  3438   004958                     u3211:
  3439   004958  EFB9  F024         	goto	l775
  3440   00495C                     u3210:
  3441   00495C  0E00               	movlw	0
  3442   00495E  6E26               	movwf	___flmul@prod^0,c
  3443   004960  0E00               	movlw	0
  3444   004962  6E27               	movwf	(___flmul@prod+1)^0,c
  3445   004964  0E00               	movlw	0
  3446   004966  6E28               	movwf	(___flmul@prod+2)^0,c
  3447   004968  0E00               	movlw	0
  3448   00496A  6E29               	movwf	(___flmul@prod+3)^0,c
  3449   00496C  6A1F               	clrf	___flmul@sign^0,c
  3450   00496E  EFCE  F024         	goto	l2929
  3451   004972                     l775:
  3452   004972  C02A  F025         	movff	___flmul@temp,___flmul@bexp
  3453   004976  0EFF               	movlw	255
  3454   004978  1626               	andwf	___flmul@prod^0,f,c
  3455   00497A  0EFF               	movlw	255
  3456   00497C  1627               	andwf	(___flmul@prod+1)^0,f,c
  3457   00497E  0E7F               	movlw	127
  3458   004980  1628               	andwf	(___flmul@prod+2)^0,f,c
  3459   004982  0E00               	movlw	0
  3460   004984  1629               	andwf	(___flmul@prod+3)^0,f,c
  3461   004986  A025               	btfss	___flmul@bexp^0,0,c
  3462   004988  EFC8  F024         	goto	u3221
  3463   00498C  EFCA  F024         	goto	u3220
  3464   004990                     u3221:
  3465   004990  EFCB  F024         	goto	l2927
  3466   004994                     u3220:
  3467   004994  8E28               	bsf	(___flmul@prod+2)^0,7,c
  3468   004996                     l2927:
  3469   004996  90D8               	bcf	status,0,c
  3470   004998  3025               	rrcf	___flmul@bexp^0,w,c
  3471   00499A  6E29               	movwf	(___flmul@prod+3)^0,c
  3472   00499C                     l2929:
  3473   00499C  501F               	movf	___flmul@sign^0,w,c
  3474   00499E  1229               	iorwf	(___flmul@prod+3)^0,f,c
  3475   0049A0  C026  F013         	movff	___flmul@prod,?___flmul
  3476   0049A4  C027  F014         	movff	___flmul@prod+1,?___flmul+1
  3477   0049A8  C028  F015         	movff	___flmul@prod+2,?___flmul+2
  3478   0049AC  C029  F016         	movff	___flmul@prod+3,?___flmul+3
  3479   0049B0                     l762:
  3480   0049B0  0012               	return		;funcret
  3481   0049B2                     __end_of___flmul:
  3482                           	callstack 0
  3483                           
  3484 ;; *************** function ___fladd *****************
  3485 ;; Defined at:
  3486 ;;		line 10 in file "C:\Program Files\Microchip\xc8\v3.00\pic\sources\c99\common\sprcadd.c"
  3487 ;; Parameters:    Size  Location     Type
  3488 ;;  b               4   43[COMRAM] unsigned char 
  3489 ;;  a               4   47[COMRAM] unsigned char 
  3490 ;; Auto vars:     Size  Location     Type
  3491 ;;  grs             1   58[COMRAM] unsigned char 
  3492 ;;  bexp            1   57[COMRAM] unsigned char 
  3493 ;;  aexp            1   56[COMRAM] unsigned char 
  3494 ;;  signs           1   55[COMRAM] unsigned char 
  3495 ;; Return value:  Size  Location     Type
  3496 ;;                  4   43[COMRAM] unsigned char 
  3497 ;; Registers used:
  3498 ;;		wreg, status,2, status,0
  3499 ;; Tracked objects:
  3500 ;;		On entry : 0/0
  3501 ;;		On exit  : 0/0
  3502 ;;		Unchanged: 0/0
  3503 ;; Data sizes:     COMRAM   BANK0   BANK1   BANK2   BANK3   BANK4   BANK5   BANK6   BANK7   BANK8   BANK9  BANK10  BANK1
      +1  BANK12  BANK13  BANK14  BANK15  BANK16  BANK17  BANK18  BANK19  BANK20  BANK21  BANK22  BANK23  BANK24  BANK25  BANK2
      +6  BANK27  BANK28  BANK29  BANK30  BANK31
  3504 ;;      Params:         8       0       0       0       0       0       0       0       0       0       0       0       
      +0       0       0       0       0       0       0       0       0       0       0       0       0       0       0       
      +0       0       0       0       0       0
  3505 ;;      Locals:         4       0       0       0       0       0       0       0       0       0       0       0       
      +0       0       0       0       0       0       0       0       0       0       0       0       0       0       0       
      +0       0       0       0       0       0
  3506 ;;      Temps:          4       0       0       0       0       0       0       0       0       0       0       0       
      +0       0       0       0       0       0       0       0       0       0       0       0       0       0       0       
      +0       0       0       0       0       0
  3507 ;;      Totals:        16       0       0       0       0       0       0       0       0       0       0       0       
      +0       0       0       0       0       0       0       0       0       0       0       0       0       0       0       
      +0       0       0       0       0       0
  3508 ;;Total ram usage:       16 bytes
  3509 ;; Hardware stack levels used: 1
  3510 ;; Hardware stack levels required when called: 1
  3511 ;; This function calls:
  3512 ;;		Nothing
  3513 ;; This function is called by:
  3514 ;;		_main
  3515 ;; This function uses a non-reentrant model
  3516 ;;
  3517                           
  3518                           	psect	text13
  3519   0040B2                     __ptext13:
  3520                           	callstack 0
  3521   0040B2                     ___fladd:
  3522                           	callstack 29
  3523   0040B2  502F               	movf	(___fladd@b+3)^0,w,c
  3524   0040B4  0B80               	andlw	128
  3525   0040B6  6E38               	movwf	___fladd@signs^0,c
  3526   0040B8  502F               	movf	(___fladd@b+3)^0,w,c
  3527   0040BA  242F               	addwf	(___fladd@b+3)^0,w,c
  3528   0040BC  6E3A               	movwf	___fladd@bexp^0,c
  3529   0040BE  AE2E               	btfss	(___fladd@b+2)^0,7,c
  3530   0040C0  EF64  F020         	goto	u2651
  3531   0040C4  EF66  F020         	goto	u2650
  3532   0040C8                     u2651:
  3533   0040C8  EF67  F020         	goto	l2619
  3534   0040CC                     u2650:
  3535   0040CC  803A               	bsf	___fladd@bexp^0,0,c
  3536   0040CE                     l2619:
  3537   0040CE  503A               	movf	___fladd@bexp^0,w,c
  3538   0040D0  B4D8               	btfsc	status,2,c
  3539   0040D2  EF6D  F020         	goto	u2661
  3540   0040D6  EF6F  F020         	goto	u2660
  3541   0040DA                     u2661:
  3542   0040DA  EF83  F020         	goto	l2629
  3543   0040DE                     u2660:
  3544   0040DE  283A               	incf	___fladd@bexp^0,w,c
  3545   0040E0  A4D8               	btfss	status,2,c
  3546   0040E2  EF75  F020         	goto	u2671
  3547   0040E6  EF77  F020         	goto	u2670
  3548   0040EA                     u2671:
  3549   0040EA  EF7F  F020         	goto	l2625
  3550   0040EE                     u2670:
  3551   0040EE  0E00               	movlw	0
  3552   0040F0  6E2C               	movwf	___fladd@b^0,c
  3553   0040F2  0E00               	movlw	0
  3554   0040F4  6E2D               	movwf	(___fladd@b+1)^0,c
  3555   0040F6  0E00               	movlw	0
  3556   0040F8  6E2E               	movwf	(___fladd@b+2)^0,c
  3557   0040FA  0E00               	movlw	0
  3558   0040FC  6E2F               	movwf	(___fladd@b+3)^0,c
  3559   0040FE                     l2625:
  3560   0040FE  8E2E               	bsf	(___fladd@b+2)^0,7,c
  3561   004100  6A2F               	clrf	(___fladd@b+3)^0,c
  3562   004102  EF8B  F020         	goto	l2631
  3563   004106                     l2629:
  3564   004106  0E00               	movlw	0
  3565   004108  6E2C               	movwf	___fladd@b^0,c
  3566   00410A  0E00               	movlw	0
  3567   00410C  6E2D               	movwf	(___fladd@b+1)^0,c
  3568   00410E  0E00               	movlw	0
  3569   004110  6E2E               	movwf	(___fladd@b+2)^0,c
  3570   004112  0E00               	movlw	0
  3571   004114  6E2F               	movwf	(___fladd@b+3)^0,c
  3572   004116                     l2631:
  3573   004116  5033               	movf	(___fladd@a+3)^0,w,c
  3574   004118  0B80               	andlw	128
  3575   00411A  6E39               	movwf	___fladd@aexp^0,c
  3576   00411C  5038               	movf	___fladd@signs^0,w,c
  3577   00411E  1839               	xorwf	___fladd@aexp^0,w,c
  3578   004120  B4D8               	btfsc	status,2,c
  3579   004122  EF95  F020         	goto	u2681
  3580   004126  EF97  F020         	goto	u2680
  3581   00412A                     u2681:
  3582   00412A  EF98  F020         	goto	l2637
  3583   00412E                     u2680:
  3584   00412E  8C38               	bsf	___fladd@signs^0,6,c
  3585   004130                     l2637:
  3586   004130  5033               	movf	(___fladd@a+3)^0,w,c
  3587   004132  2433               	addwf	(___fladd@a+3)^0,w,c
  3588   004134  6E39               	movwf	___fladd@aexp^0,c
  3589   004136  AE32               	btfss	(___fladd@a+2)^0,7,c
  3590   004138  EFA0  F020         	goto	u2691
  3591   00413C  EFA2  F020         	goto	u2690
  3592   004140                     u2691:
  3593   004140  EFA3  F020         	goto	l2643
  3594   004144                     u2690:
  3595   004144  8039               	bsf	___fladd@aexp^0,0,c
  3596   004146                     l2643:
  3597   004146  5039               	movf	___fladd@aexp^0,w,c
  3598   004148  B4D8               	btfsc	status,2,c
  3599   00414A  EFA9  F020         	goto	u2701
  3600   00414E  EFAB  F020         	goto	u2700
  3601   004152                     u2701:
  3602   004152  EFBF  F020         	goto	l2653
  3603   004156                     u2700:
  3604   004156  2839               	incf	___fladd@aexp^0,w,c
  3605   004158  A4D8               	btfss	status,2,c
  3606   00415A  EFB1  F020         	goto	u2711
  3607   00415E  EFB3  F020         	goto	u2710
  3608   004162                     u2711:
  3609   004162  EFBB  F020         	goto	l2649
  3610   004166                     u2710:
  3611   004166  0E00               	movlw	0
  3612   004168  6E30               	movwf	___fladd@a^0,c
  3613   00416A  0E00               	movlw	0
  3614   00416C  6E31               	movwf	(___fladd@a+1)^0,c
  3615   00416E  0E00               	movlw	0
  3616   004170  6E32               	movwf	(___fladd@a+2)^0,c
  3617   004172  0E00               	movlw	0
  3618   004174  6E33               	movwf	(___fladd@a+3)^0,c
  3619   004176                     l2649:
  3620   004176  8E32               	bsf	(___fladd@a+2)^0,7,c
  3621   004178  6A33               	clrf	(___fladd@a+3)^0,c
  3622   00417A  EFC7  F020         	goto	l2655
  3623   00417E                     l2653:
  3624   00417E  0E00               	movlw	0
  3625   004180  6E30               	movwf	___fladd@a^0,c
  3626   004182  0E00               	movlw	0
  3627   004184  6E31               	movwf	(___fladd@a+1)^0,c
  3628   004186  0E00               	movlw	0
  3629   004188  6E32               	movwf	(___fladd@a+2)^0,c
  3630   00418A  0E00               	movlw	0
  3631   00418C  6E33               	movwf	(___fladd@a+3)^0,c
  3632   00418E                     l2655:
  3633   00418E  503A               	movf	___fladd@bexp^0,w,c
  3634   004190  5C39               	subwf	___fladd@aexp^0,w,c
  3635   004192  B0D8               	btfsc	status,0,c
  3636   004194  EFCE  F020         	goto	u2721
  3637   004198  EFD0  F020         	goto	u2720
  3638   00419C                     u2721:
  3639   00419C  EFF7  F020         	goto	l2691
  3640   0041A0                     u2720:
  3641   0041A0  AC38               	btfss	___fladd@signs^0,6,c
  3642   0041A2  EFD5  F020         	goto	u2731
  3643   0041A6  EFD7  F020         	goto	u2730
  3644   0041AA                     u2731:
  3645   0041AA  EFD9  F020         	goto	l2661
  3646   0041AE                     u2730:
  3647   0041AE  0E80               	movlw	128
  3648   0041B0  1A38               	xorwf	___fladd@signs^0,f,c
  3649   0041B2                     l2661:
  3650   0041B2  C03A  F03B         	movff	___fladd@bexp,___fladd@grs
  3651   0041B6  C039  F03A         	movff	___fladd@aexp,___fladd@bexp
  3652   0041BA  C03B  F039         	movff	___fladd@grs,___fladd@aexp
  3653   0041BE  C02C  F03B         	movff	___fladd@b,___fladd@grs
  3654   0041C2  C030  F02C         	movff	___fladd@a,___fladd@b
  3655   0041C6  C03B  F030         	movff	___fladd@grs,___fladd@a
  3656   0041CA  C02D  F03B         	movff	___fladd@b+1,___fladd@grs
  3657   0041CE  C031  F02D         	movff	___fladd@a+1,___fladd@b+1
  3658   0041D2  C03B  F031         	movff	___fladd@grs,___fladd@a+1
  3659   0041D6  C02E  F03B         	movff	___fladd@b+2,___fladd@grs
  3660   0041DA  C032  F02E         	movff	___fladd@a+2,___fladd@b+2
  3661   0041DE  C03B  F032         	movff	___fladd@grs,___fladd@a+2
  3662   0041E2  C02F  F03B         	movff	___fladd@b+3,___fladd@grs
  3663   0041E6  C033  F02F         	movff	___fladd@a+3,___fladd@b+3
  3664   0041EA  C03B  F033         	movff	___fladd@grs,___fladd@a+3
  3665   0041EE                     l2691:
  3666   0041EE  6A3B               	clrf	___fladd@grs^0,c
  3667   0041F0  503A               	movf	___fladd@bexp^0,w,c
  3668   0041F2  C039  F034         	movff	___fladd@aexp,??___fladd
  3669   0041F6  6A35               	clrf	(??___fladd+1)^0,c
  3670   0041F8  5E34               	subwf	??___fladd^0,f,c
  3671   0041FA  0E00               	movlw	0
  3672   0041FC  5A35               	subwfb	(??___fladd+1)^0,f,c
  3673   0041FE  BE35               	btfsc	(??___fladd+1)^0,7,c
  3674   004200  EF0B  F021         	goto	u2741
  3675   004204  5035               	movf	(??___fladd+1)^0,w,c
  3676   004206  E109               	bnz	u2740
  3677   004208  0E1A               	movlw	26
  3678   00420A  5C34               	subwf	??___fladd^0,w,c
  3679   00420C  A0D8               	btfss	status,0,c
  3680   00420E  EF0B  F021         	goto	u2741
  3681   004212  EF0D  F021         	goto	u2740
  3682   004216                     u2741:
  3683   004216  EF44  F021         	goto	l673
  3684   00421A                     u2740:
  3685   00421A  502C               	movf	___fladd@b^0,w,c
  3686   00421C  102D               	iorwf	(___fladd@b+1)^0,w,c
  3687   00421E  102E               	iorwf	(___fladd@b+2)^0,w,c
  3688   004220  102F               	iorwf	(___fladd@b+3)^0,w,c
  3689   004222  A4D8               	btfss	status,2,c
  3690   004224  EF16  F021         	goto	u2751
  3691   004228  EF19  F021         	goto	u2750
  3692   00422C                     u2751:
  3693   00422C  0E01               	movlw	1
  3694   00422E  EF1A  F021         	goto	u2760
  3695   004232                     u2750:
  3696   004232  0E00               	movlw	0
  3697   004234                     u2760:
  3698   004234  6E3B               	movwf	___fladd@grs^0,c
  3699   004236  0E00               	movlw	0
  3700   004238  6E2C               	movwf	___fladd@b^0,c
  3701   00423A  0E00               	movlw	0
  3702   00423C  6E2D               	movwf	(___fladd@b+1)^0,c
  3703   00423E  0E00               	movlw	0
  3704   004240  6E2E               	movwf	(___fladd@b+2)^0,c
  3705   004242  0E00               	movlw	0
  3706   004244  6E2F               	movwf	(___fladd@b+3)^0,c
  3707   004246  C039  F03A         	movff	___fladd@aexp,___fladd@bexp
  3708   00424A  EF4D  F021         	goto	l672
  3709   00424E                     l674:
  3710   00424E  A03B               	btfss	___fladd@grs^0,0,c
  3711   004250  EF2C  F021         	goto	u2771
  3712   004254  EF2E  F021         	goto	u2770
  3713   004258                     u2771:
  3714   004258  EF34  F021         	goto	l2701
  3715   00425C                     u2770:
  3716   00425C  90D8               	bcf	status,0,c
  3717   00425E  303B               	rrcf	___fladd@grs^0,w,c
  3718   004260  0901               	iorlw	1
  3719   004262  6E3B               	movwf	___fladd@grs^0,c
  3720   004264  EF36  F021         	goto	l2703
  3721   004268                     l2701:
  3722   004268  90D8               	bcf	status,0,c
  3723   00426A  323B               	rrcf	___fladd@grs^0,f,c
  3724   00426C                     l2703:
  3725   00426C  A02C               	btfss	___fladd@b^0,0,c
  3726   00426E  EF3B  F021         	goto	u2781
  3727   004272  EF3D  F021         	goto	u2780
  3728   004276                     u2781:
  3729   004276  EF3E  F021         	goto	l2707
  3730   00427A                     u2780:
  3731   00427A  8E3B               	bsf	___fladd@grs^0,7,c
  3732   00427C                     l2707:
  3733   00427C  342F               	rlcf	(___fladd@b+3)^0,w,c
  3734   00427E  322F               	rrcf	(___fladd@b+3)^0,f,c
  3735   004280  322E               	rrcf	(___fladd@b+2)^0,f,c
  3736   004282  322D               	rrcf	(___fladd@b+1)^0,f,c
  3737   004284  322C               	rrcf	___fladd@b^0,f,c
  3738   004286  2A3A               	incf	___fladd@bexp^0,f,c
  3739   004288                     l673:
  3740   004288  5039               	movf	___fladd@aexp^0,w,c
  3741   00428A  5C3A               	subwf	___fladd@bexp^0,w,c
  3742   00428C  A0D8               	btfss	status,0,c
  3743   00428E  EF4B  F021         	goto	u2791
  3744   004292  EF4D  F021         	goto	u2790
  3745   004296                     u2791:
  3746   004296  EF27  F021         	goto	l674
  3747   00429A                     u2790:
  3748   00429A                     l672:
  3749   00429A  BC38               	btfsc	___fladd@signs^0,6,c
  3750   00429C  EF52  F021         	goto	u2801
  3751   0042A0  EF54  F021         	goto	u2800
  3752   0042A4                     u2801:
  3753   0042A4  EF94  F021         	goto	l2735
  3754   0042A8                     u2800:
  3755   0042A8  503A               	movf	___fladd@bexp^0,w,c
  3756   0042AA  A4D8               	btfss	status,2,c
  3757   0042AC  EF5A  F021         	goto	u2811
  3758   0042B0  EF5C  F021         	goto	u2810
  3759   0042B4                     u2811:
  3760   0042B4  EF66  F021         	goto	l2717
  3761   0042B8                     u2810:
  3762   0042B8  0E00               	movlw	0
  3763   0042BA  6E2C               	movwf	?___fladd^0,c
  3764   0042BC  0E00               	movlw	0
  3765   0042BE  6E2D               	movwf	(?___fladd+1)^0,c
  3766   0042C0  0E00               	movlw	0
  3767   0042C2  6E2E               	movwf	(?___fladd+2)^0,c
  3768   0042C4  0E00               	movlw	0
  3769   0042C6  6E2F               	movwf	(?___fladd+3)^0,c
  3770   0042C8  EFB3  F022         	goto	l681
  3771   0042CC                     l2717:
  3772   0042CC  5030               	movf	___fladd@a^0,w,c
  3773   0042CE  262C               	addwf	___fladd@b^0,f,c
  3774   0042D0  5031               	movf	(___fladd@a+1)^0,w,c
  3775   0042D2  222D               	addwfc	(___fladd@b+1)^0,f,c
  3776   0042D4  5032               	movf	(___fladd@a+2)^0,w,c
  3777   0042D6  222E               	addwfc	(___fladd@b+2)^0,f,c
  3778   0042D8  5033               	movf	(___fladd@a+3)^0,w,c
  3779   0042DA  222F               	addwfc	(___fladd@b+3)^0,f,c
  3780   0042DC  A02F               	btfss	(___fladd@b+3)^0,0,c
  3781   0042DE  EF73  F021         	goto	u2821
  3782   0042E2  EF75  F021         	goto	u2820
  3783   0042E6                     u2821:
  3784   0042E6  EF21  F022         	goto	l686
  3785   0042EA                     u2820:
  3786   0042EA  A03B               	btfss	___fladd@grs^0,0,c
  3787   0042EC  EF7A  F021         	goto	u2831
  3788   0042F0  EF7C  F021         	goto	u2830
  3789   0042F4                     u2831:
  3790   0042F4  EF82  F021         	goto	l2725
  3791   0042F8                     u2830:
  3792   0042F8  90D8               	bcf	status,0,c
  3793   0042FA  303B               	rrcf	___fladd@grs^0,w,c
  3794   0042FC  0901               	iorlw	1
  3795   0042FE  6E3B               	movwf	___fladd@grs^0,c
  3796   004300  EF84  F021         	goto	l2727
  3797   004304                     l2725:
  3798   004304  90D8               	bcf	status,0,c
  3799   004306  323B               	rrcf	___fladd@grs^0,f,c
  3800   004308                     l2727:
  3801   004308  A02C               	btfss	___fladd@b^0,0,c
  3802   00430A  EF89  F021         	goto	u2841
  3803   00430E  EF8B  F021         	goto	u2840
  3804   004312                     u2841:
  3805   004312  EF8C  F021         	goto	l2731
  3806   004316                     u2840:
  3807   004316  8E3B               	bsf	___fladd@grs^0,7,c
  3808   004318                     l2731:
  3809   004318  342F               	rlcf	(___fladd@b+3)^0,w,c
  3810   00431A  322F               	rrcf	(___fladd@b+3)^0,f,c
  3811   00431C  322E               	rrcf	(___fladd@b+2)^0,f,c
  3812   00431E  322D               	rrcf	(___fladd@b+1)^0,f,c
  3813   004320  322C               	rrcf	___fladd@b^0,f,c
  3814   004322  2A3A               	incf	___fladd@bexp^0,f,c
  3815   004324  EF21  F022         	goto	l686
  3816   004328                     l2735:
  3817   004328  5030               	movf	___fladd@a^0,w,c
  3818   00432A  5C2C               	subwf	___fladd@b^0,w,c
  3819   00432C  5031               	movf	(___fladd@a+1)^0,w,c
  3820   00432E  582D               	subwfb	(___fladd@b+1)^0,w,c
  3821   004330  5032               	movf	(___fladd@a+2)^0,w,c
  3822   004332  582E               	subwfb	(___fladd@b+2)^0,w,c
  3823   004334  502F               	movf	(___fladd@b+3)^0,w,c
  3824   004336  0A80               	xorlw	128
  3825   004338  6E34               	movwf	??___fladd^0,c
  3826   00433A  5033               	movf	(___fladd@a+3)^0,w,c
  3827   00433C  0A80               	xorlw	128
  3828   00433E  5834               	subwfb	??___fladd^0,w,c
  3829   004340  B0D8               	btfsc	status,0,c
  3830   004342  EFA5  F021         	goto	u2851
  3831   004346  EFA7  F021         	goto	u2850
  3832   00434A                     u2851:
  3833   00434A  EFD2  F021         	goto	l2745
  3834   00434E                     u2850:
  3835   00434E  502C               	movf	___fladd@b^0,w,c
  3836   004350  5C30               	subwf	___fladd@a^0,w,c
  3837   004352  6E34               	movwf	??___fladd^0,c
  3838   004354  502D               	movf	(___fladd@b+1)^0,w,c
  3839   004356  5831               	subwfb	(___fladd@a+1)^0,w,c
  3840   004358  6E35               	movwf	(??___fladd+1)^0,c
  3841   00435A  502E               	movf	(___fladd@b+2)^0,w,c
  3842   00435C  5832               	subwfb	(___fladd@a+2)^0,w,c
  3843   00435E  6E36               	movwf	(??___fladd+2)^0,c
  3844   004360  502F               	movf	(___fladd@b+3)^0,w,c
  3845   004362  5833               	subwfb	(___fladd@a+3)^0,w,c
  3846   004364  6E37               	movwf	(??___fladd+3)^0,c
  3847   004366  0EFF               	movlw	255
  3848   004368  2434               	addwf	??___fladd^0,w,c
  3849   00436A  6E2C               	movwf	___fladd@b^0,c
  3850   00436C  0EFF               	movlw	255
  3851   00436E  2035               	addwfc	(??___fladd+1)^0,w,c
  3852   004370  6E2D               	movwf	(___fladd@b+1)^0,c
  3853   004372  0EFF               	movlw	255
  3854   004374  2036               	addwfc	(??___fladd+2)^0,w,c
  3855   004376  6E2E               	movwf	(___fladd@b+2)^0,c
  3856   004378  0EFF               	movlw	255
  3857   00437A  2037               	addwfc	(??___fladd+3)^0,w,c
  3858   00437C  6E2F               	movwf	(___fladd@b+3)^0,c
  3859   00437E  0E80               	movlw	128
  3860   004380  1A38               	xorwf	___fladd@signs^0,f,c
  3861   004382  6C3B               	negf	___fladd@grs^0,c
  3862   004384  503B               	movf	___fladd@grs^0,w,c
  3863   004386  A4D8               	btfss	status,2,c
  3864   004388  EFC8  F021         	goto	u2861
  3865   00438C  EFCA  F021         	goto	u2860
  3866   004390                     u2861:
  3867   004390  EFDA  F021         	goto	l689
  3868   004394                     u2860:
  3869   004394  0E01               	movlw	1
  3870   004396  262C               	addwf	___fladd@b^0,f,c
  3871   004398  0E00               	movlw	0
  3872   00439A  222D               	addwfc	(___fladd@b+1)^0,f,c
  3873   00439C  222E               	addwfc	(___fladd@b+2)^0,f,c
  3874   00439E  222F               	addwfc	(___fladd@b+3)^0,f,c
  3875   0043A0  EFDA  F021         	goto	l689
  3876   0043A4                     l2745:
  3877   0043A4  5030               	movf	___fladd@a^0,w,c
  3878   0043A6  5E2C               	subwf	___fladd@b^0,f,c
  3879   0043A8  5031               	movf	(___fladd@a+1)^0,w,c
  3880   0043AA  5A2D               	subwfb	(___fladd@b+1)^0,f,c
  3881   0043AC  5032               	movf	(___fladd@a+2)^0,w,c
  3882   0043AE  5A2E               	subwfb	(___fladd@b+2)^0,f,c
  3883   0043B0  5033               	movf	(___fladd@a+3)^0,w,c
  3884   0043B2  5A2F               	subwfb	(___fladd@b+3)^0,f,c
  3885   0043B4                     l689:
  3886   0043B4  502C               	movf	___fladd@b^0,w,c
  3887   0043B6  102D               	iorwf	(___fladd@b+1)^0,w,c
  3888   0043B8  102E               	iorwf	(___fladd@b+2)^0,w,c
  3889   0043BA  102F               	iorwf	(___fladd@b+3)^0,w,c
  3890   0043BC  A4D8               	btfss	status,2,c
  3891   0043BE  EFE3  F021         	goto	u2871
  3892   0043C2  EFE5  F021         	goto	u2870
  3893   0043C6                     u2871:
  3894   0043C6  EF1A  F022         	goto	l2769
  3895   0043CA                     u2870:
  3896   0043CA  503B               	movf	___fladd@grs^0,w,c
  3897   0043CC  A4D8               	btfss	status,2,c
  3898   0043CE  EFEB  F021         	goto	u2881
  3899   0043D2  EFED  F021         	goto	u2880
  3900   0043D6                     u2881:
  3901   0043D6  EF1A  F022         	goto	l2769
  3902   0043DA                     u2880:
  3903   0043DA  0E00               	movlw	0
  3904   0043DC  6E2C               	movwf	?___fladd^0,c
  3905   0043DE  0E00               	movlw	0
  3906   0043E0  6E2D               	movwf	(?___fladd+1)^0,c
  3907   0043E2  0E00               	movlw	0
  3908   0043E4  6E2E               	movwf	(?___fladd+2)^0,c
  3909   0043E6  0E00               	movlw	0
  3910   0043E8  6E2F               	movwf	(?___fladd+3)^0,c
  3911   0043EA  EFB3  F022         	goto	l681
  3912   0043EE                     l2753:
  3913   0043EE  90D8               	bcf	status,0,c
  3914   0043F0  362C               	rlcf	___fladd@b^0,f,c
  3915   0043F2  362D               	rlcf	(___fladd@b+1)^0,f,c
  3916   0043F4  362E               	rlcf	(___fladd@b+2)^0,f,c
  3917   0043F6  362F               	rlcf	(___fladd@b+3)^0,f,c
  3918   0043F8  AE3B               	btfss	___fladd@grs^0,7,c
  3919   0043FA  EF01  F022         	goto	u2891
  3920   0043FE  EF03  F022         	goto	u2890
  3921   004402                     u2891:
  3922   004402  EF04  F022         	goto	l2759
  3923   004406                     u2890:
  3924   004406  802C               	bsf	___fladd@b^0,0,c
  3925   004408                     l2759:
  3926   004408  A03B               	btfss	___fladd@grs^0,0,c
  3927   00440A  EF09  F022         	goto	u2901
  3928   00440E  EF0B  F022         	goto	u2900
  3929   004412                     u2901:
  3930   004412  EF0F  F022         	goto	l2763
  3931   004416                     u2900:
  3932   004416  80D8               	bsf	status,0,c
  3933   004418  363B               	rlcf	___fladd@grs^0,f,c
  3934   00441A  EF11  F022         	goto	l2765
  3935   00441E                     l2763:
  3936   00441E  90D8               	bcf	status,0,c
  3937   004420  363B               	rlcf	___fladd@grs^0,f,c
  3938   004422                     l2765:
  3939   004422  503A               	movf	___fladd@bexp^0,w,c
  3940   004424  B4D8               	btfsc	status,2,c
  3941   004426  EF17  F022         	goto	u2911
  3942   00442A  EF19  F022         	goto	u2910
  3943   00442E                     u2911:
  3944   00442E  EF1A  F022         	goto	l2769
  3945   004432                     u2910:
  3946   004432  063A               	decf	___fladd@bexp^0,f,c
  3947   004434                     l2769:
  3948   004434  AE2E               	btfss	(___fladd@b+2)^0,7,c
  3949   004436  EF1F  F022         	goto	u2921
  3950   00443A  EF21  F022         	goto	u2920
  3951   00443E                     u2921:
  3952   00443E  EFF7  F021         	goto	l2753
  3953   004442                     u2920:
  3954   004442                     l686:
  3955   004442  6A39               	clrf	___fladd@aexp^0,c
  3956   004444  AE3B               	btfss	___fladd@grs^0,7,c
  3957   004446  EF27  F022         	goto	u2931
  3958   00444A  EF29  F022         	goto	u2930
  3959   00444E                     u2931:
  3960   00444E  EF41  F022         	goto	l698
  3961   004452                     u2930:
  3962   004452  C03B  F034         	movff	___fladd@grs,??___fladd
  3963   004456  0E7F               	movlw	127
  3964   004458  1634               	andwf	??___fladd^0,f,c
  3965   00445A  B4D8               	btfsc	status,2,c
  3966   00445C  EF32  F022         	goto	u2941
  3967   004460  EF34  F022         	goto	u2940
  3968   004464                     u2941:
  3969   004464  EF38  F022         	goto	l699
  3970   004468                     u2940:
  3971   004468                     l2773:
  3972   004468  0E01               	movlw	1
  3973   00446A  6E39               	movwf	___fladd@aexp^0,c
  3974   00446C  EF41  F022         	goto	l698
  3975   004470                     l699:
  3976   004470  A02C               	btfss	___fladd@b^0,0,c
  3977   004472  EF3D  F022         	goto	u2951
  3978   004476  EF3F  F022         	goto	u2950
  3979   00447A                     u2951:
  3980   00447A  EF41  F022         	goto	l698
  3981   00447E                     u2950:
  3982   00447E  EF34  F022         	goto	l2773
  3983   004482                     l698:
  3984   004482  5039               	movf	___fladd@aexp^0,w,c
  3985   004484  B4D8               	btfsc	status,2,c
  3986   004486  EF47  F022         	goto	u2961
  3987   00448A  EF49  F022         	goto	u2960
  3988   00448E                     u2961:
  3989   00448E  EF74  F022         	goto	l2785
  3990   004492                     u2960:
  3991   004492  0E01               	movlw	1
  3992   004494  262C               	addwf	___fladd@b^0,f,c
  3993   004496  0E00               	movlw	0
  3994   004498  222D               	addwfc	(___fladd@b+1)^0,f,c
  3995   00449A  222E               	addwfc	(___fladd@b+2)^0,f,c
  3996   00449C  222F               	addwfc	(___fladd@b+3)^0,f,c
  3997   00449E  A02F               	btfss	(___fladd@b+3)^0,0,c
  3998   0044A0  EF54  F022         	goto	u2971
  3999   0044A4  EF56  F022         	goto	u2970
  4000   0044A8                     u2971:
  4001   0044A8  EF74  F022         	goto	l2785
  4002   0044AC                     u2970:
  4003   0044AC  C02C  F034         	movff	___fladd@b,??___fladd
  4004   0044B0  C02D  F035         	movff	___fladd@b+1,??___fladd+1
  4005   0044B4  C02E  F036         	movff	___fladd@b+2,??___fladd+2
  4006   0044B8  C02F  F037         	movff	___fladd@b+3,??___fladd+3
  4007   0044BC  3437               	rlcf	(??___fladd+3)^0,w,c
  4008   0044BE  3237               	rrcf	(??___fladd+3)^0,f,c
  4009   0044C0  3236               	rrcf	(??___fladd+2)^0,f,c
  4010   0044C2  3235               	rrcf	(??___fladd+1)^0,f,c
  4011   0044C4  3234               	rrcf	??___fladd^0,f,c
  4012   0044C6  C034  F02C         	movff	??___fladd,___fladd@b
  4013   0044CA  C035  F02D         	movff	??___fladd+1,___fladd@b+1
  4014   0044CE  C036  F02E         	movff	??___fladd+2,___fladd@b+2
  4015   0044D2  C037  F02F         	movff	??___fladd+3,___fladd@b+3
  4016   0044D6  283A               	incf	___fladd@bexp^0,w,c
  4017   0044D8  B4D8               	btfsc	status,2,c
  4018   0044DA  EF71  F022         	goto	u2981
  4019   0044DE  EF73  F022         	goto	u2980
  4020   0044E2                     u2981:
  4021   0044E2  EF74  F022         	goto	l2785
  4022   0044E6                     u2980:
  4023   0044E6  2A3A               	incf	___fladd@bexp^0,f,c
  4024   0044E8                     l2785:
  4025   0044E8  283A               	incf	___fladd@bexp^0,w,c
  4026   0044EA  B4D8               	btfsc	status,2,c
  4027   0044EC  EF7A  F022         	goto	u2991
  4028   0044F0  EF7C  F022         	goto	u2990
  4029   0044F4                     u2991:
  4030   0044F4  EF84  F022         	goto	l2789
  4031   0044F8                     u2990:
  4032   0044F8  503A               	movf	___fladd@bexp^0,w,c
  4033   0044FA  A4D8               	btfss	status,2,c
  4034   0044FC  EF82  F022         	goto	u3001
  4035   004500  EF84  F022         	goto	u3000
  4036   004504                     u3001:
  4037   004504  EF95  F022         	goto	l705
  4038   004508                     u3000:
  4039   004508                     l2789:
  4040   004508  0E00               	movlw	0
  4041   00450A  6E2C               	movwf	___fladd@b^0,c
  4042   00450C  0E00               	movlw	0
  4043   00450E  6E2D               	movwf	(___fladd@b+1)^0,c
  4044   004510  0E00               	movlw	0
  4045   004512  6E2E               	movwf	(___fladd@b+2)^0,c
  4046   004514  0E00               	movlw	0
  4047   004516  6E2F               	movwf	(___fladd@b+3)^0,c
  4048   004518  503A               	movf	___fladd@bexp^0,w,c
  4049   00451A  A4D8               	btfss	status,2,c
  4050   00451C  EF92  F022         	goto	u3011
  4051   004520  EF94  F022         	goto	u3010
  4052   004524                     u3011:
  4053   004524  EF95  F022         	goto	l705
  4054   004528                     u3010:
  4055   004528  6A38               	clrf	___fladd@signs^0,c
  4056   00452A                     l705:
  4057   00452A  A03A               	btfss	___fladd@bexp^0,0,c
  4058   00452C  EF9A  F022         	goto	u3021
  4059   004530  EF9C  F022         	goto	u3020
  4060   004534                     u3021:
  4061   004534  EF9F  F022         	goto	l2795
  4062   004538                     u3020:
  4063   004538  8E2E               	bsf	(___fladd@b+2)^0,7,c
  4064   00453A  EFA0  F022         	goto	l2797
  4065   00453E                     l2795:
  4066   00453E  9E2E               	bcf	(___fladd@b+2)^0,7,c
  4067   004540                     l2797:
  4068   004540  90D8               	bcf	status,0,c
  4069   004542  303A               	rrcf	___fladd@bexp^0,w,c
  4070   004544  6E2F               	movwf	(___fladd@b+3)^0,c
  4071   004546  AE38               	btfss	___fladd@signs^0,7,c
  4072   004548  EFA8  F022         	goto	u3031
  4073   00454C  EFAA  F022         	goto	u3030
  4074   004550                     u3031:
  4075   004550  EFAB  F022         	goto	l2803
  4076   004554                     u3030:
  4077   004554  8E2F               	bsf	(___fladd@b+3)^0,7,c
  4078   004556                     l2803:
  4079   004556  C02C  F02C         	movff	___fladd@b,?___fladd
  4080   00455A  C02D  F02D         	movff	___fladd@b+1,?___fladd+1
  4081   00455E  C02E  F02E         	movff	___fladd@b+2,?___fladd+2
  4082   004562  C02F  F02F         	movff	___fladd@b+3,?___fladd+3
  4083   004566                     l681:
  4084   004566  0012               	return		;funcret
  4085   004568                     __end_of___fladd:
  4086                           	callstack 0
  4087                           
  4088 ;; *************** function _LCD_String_xy *****************
  4089 ;; Defined at:
  4090 ;;		line 281 in file "ACD_LCD_main.c"
  4091 ;; Parameters:    Size  Location     Type
  4092 ;;  row             1    wreg     unsigned char 
  4093 ;;  pos             1   13[COMRAM] unsigned char 
  4094 ;;  msg             2   14[COMRAM] PTR const unsigned char 
  4095 ;;		 -> data(10), STR_1(17), 
  4096 ;; Auto vars:     Size  Location     Type
  4097 ;;  row             1   16[COMRAM] unsigned char 
  4098 ;;  location        1   17[COMRAM] unsigned char 
  4099 ;; Return value:  Size  Location     Type
  4100 ;;                  1    wreg      void 
  4101 ;; Registers used:
  4102 ;;		wreg, fsr1l, fsr1h, status,2, status,0, tblptrl, tblptrh, tblptru, cstack
  4103 ;; Tracked objects:
  4104 ;;		On entry : 0/0
  4105 ;;		On exit  : 0/0
  4106 ;;		Unchanged: 0/0
  4107 ;; Data sizes:     COMRAM   BANK0   BANK1   BANK2   BANK3   BANK4   BANK5   BANK6   BANK7   BANK8   BANK9  BANK10  BANK1
      +1  BANK12  BANK13  BANK14  BANK15  BANK16  BANK17  BANK18  BANK19  BANK20  BANK21  BANK22  BANK23  BANK24  BANK25  BANK2
      +6  BANK27  BANK28  BANK29  BANK30  BANK31
  4108 ;;      Params:         3       0       0       0       0       0       0       0       0       0       0       0       
      +0       0       0       0       0       0       0       0       0       0       0       0       0       0       0       
      +0       0       0       0       0       0
  4109 ;;      Locals:         2       0       0       0       0       0       0       0       0       0       0       0       
      +0       0       0       0       0       0       0       0       0       0       0       0       0       0       0       
      +0       0       0       0       0       0
  4110 ;;      Temps:          0       0       0       0       0       0       0       0       0       0       0       0       
      +0       0       0       0       0       0       0       0       0       0       0       0       0       0       0       
      +0       0       0       0       0       0
  4111 ;;      Totals:         5       0       0       0       0       0       0       0       0       0       0       0       
      +0       0       0       0       0       0       0       0       0       0       0       0       0       0       0       
      +0       0       0       0       0       0
  4112 ;;Total ram usage:        5 bytes
  4113 ;; Hardware stack levels used: 1
  4114 ;; Hardware stack levels required when called: 4
  4115 ;; This function calls:
  4116 ;;		_LCD_Command
  4117 ;;		_LCD_String
  4118 ;; This function is called by:
  4119 ;;		_main
  4120 ;; This function uses a non-reentrant model
  4121 ;;
  4122                           
  4123                           	psect	text14
  4124   005386                     __ptext14:
  4125                           	callstack 0
  4126   005386                     _LCD_String_xy:
  4127                           	callstack 26
  4128                           
  4129                           ;incstack = 0
  4130                           ;LCD_String_xy@row stored from wreg
  4131   005386  6E11               	movwf	LCD_String_xy@row^0,c
  4132   005388                     
  4133                           ;ACD_LCD_main.c: 284:     if(row<=1)
  4134   005388  0E02               	movlw	2
  4135   00538A  6011               	cpfslt	LCD_String_xy@row^0,c
  4136   00538C  EFCA  F029         	goto	u2621
  4137   005390  EFCC  F029         	goto	u2620
  4138   005394                     u2621:
  4139   005394  EFD5  F029         	goto	l2585
  4140   005398                     u2620:
  4141   005398                     
  4142                           ;ACD_LCD_main.c: 285:     {;ACD_LCD_main.c: 286:         location=(0x80) | ((pos) & 0x0f
      +                          );
  4143   005398  500E               	movf	LCD_String_xy@pos^0,w,c
  4144   00539A  0B0F               	andlw	15
  4145   00539C  0980               	iorlw	128
  4146   00539E  6E12               	movwf	LCD_String_xy@location^0,c
  4147   0053A0                     
  4148                           ;ACD_LCD_main.c: 287:         LCD_Command(location);
  4149   0053A0  5012               	movf	LCD_String_xy@location^0,w,c
  4150   0053A2  EC78  F02A         	call	_LCD_Command
  4151                           
  4152                           ;ACD_LCD_main.c: 288:     }
  4153   0053A6  EFDC  F029         	goto	l2589
  4154   0053AA                     l2585:
  4155                           
  4156                           ;ACD_LCD_main.c: 290:     {;ACD_LCD_main.c: 291:         location=(0xC0) | ((pos) & 0x0f
      +                          );
  4157   0053AA  500E               	movf	LCD_String_xy@pos^0,w,c
  4158   0053AC  0B0F               	andlw	15
  4159   0053AE  09C0               	iorlw	192
  4160   0053B0  6E12               	movwf	LCD_String_xy@location^0,c
  4161   0053B2                     
  4162                           ;ACD_LCD_main.c: 292:         LCD_Command(location);
  4163   0053B2  5012               	movf	LCD_String_xy@location^0,w,c
  4164   0053B4  EC78  F02A         	call	_LCD_Command
  4165   0053B8                     l2589:
  4166                           
  4167                           ;ACD_LCD_main.c: 294:     LCD_String(msg);
  4168   0053B8  C00F  F00C         	movff	LCD_String_xy@msg,LCD_String@msg
  4169   0053BC  C010  F00D         	movff	LCD_String_xy@msg+1,LCD_String@msg+1
  4170   0053C0  ECDC  F028         	call	_LCD_String	;wreg free
  4171   0053C4  0012               	return		;funcret
  4172   0053C6                     __end_of_LCD_String_xy:
  4173                           	callstack 0
  4174                           
  4175 ;; *************** function _LCD_String *****************
  4176 ;; Defined at:
  4177 ;;		line 272 in file "ACD_LCD_main.c"
  4178 ;; Parameters:    Size  Location     Type
  4179 ;;  msg             2   11[COMRAM] PTR const unsigned char 
  4180 ;;		 -> data(10), STR_1(17), 
  4181 ;; Auto vars:     Size  Location     Type
  4182 ;;		None
  4183 ;; Return value:  Size  Location     Type
  4184 ;;                  1    wreg      void 
  4185 ;; Registers used:
  4186 ;;		wreg, fsr1l, fsr1h, status,2, status,0, tblptrl, tblptrh, tblptru, cstack
  4187 ;; Tracked objects:
  4188 ;;		On entry : 0/0
  4189 ;;		On exit  : 0/0
  4190 ;;		Unchanged: 0/0
  4191 ;; Data sizes:     COMRAM   BANK0   BANK1   BANK2   BANK3   BANK4   BANK5   BANK6   BANK7   BANK8   BANK9  BANK10  BANK1
      +1  BANK12  BANK13  BANK14  BANK15  BANK16  BANK17  BANK18  BANK19  BANK20  BANK21  BANK22  BANK23  BANK24  BANK25  BANK2
      +6  BANK27  BANK28  BANK29  BANK30  BANK31
  4192 ;;      Params:         2       0       0       0       0       0       0       0       0       0       0       0       
      +0       0       0       0       0       0       0       0       0       0       0       0       0       0       0       
      +0       0       0       0       0       0
  4193 ;;      Locals:         0       0       0       0       0       0       0       0       0       0       0       0       
      +0       0       0       0       0       0       0       0       0       0       0       0       0       0       0       
      +0       0       0       0       0       0
  4194 ;;      Temps:          0       0       0       0       0       0       0       0       0       0       0       0       
      +0       0       0       0       0       0       0       0       0       0       0       0       0       0       0       
      +0       0       0       0       0       0
  4195 ;;      Totals:         2       0       0       0       0       0       0       0       0       0       0       0       
      +0       0       0       0       0       0       0       0       0       0       0       0       0       0       0       
      +0       0       0       0       0       0
  4196 ;;Total ram usage:        2 bytes
  4197 ;; Hardware stack levels used: 1
  4198 ;; Hardware stack levels required when called: 3
  4199 ;; This function calls:
  4200 ;;		_LCD_Char
  4201 ;; This function is called by:
  4202 ;;		_LCD_String_xy
  4203 ;; This function uses a non-reentrant model
  4204 ;;
  4205                           
  4206                           	psect	text15
  4207   0051B8                     __ptext15:
  4208                           	callstack 0
  4209   0051B8                     _LCD_String:
  4210                           	callstack 26
  4211   0051B8                     
  4212                           ;ACD_LCD_main.c: 272: void LCD_String(const char *msg);ACD_LCD_main.c: 273: {;ACD_LCD_ma
      +                          in.c: 274:     while((*msg)!=0)
  4213   0051B8  EFF7  F028         	goto	l2529
  4214   0051BC                     l2525:
  4215                           
  4216                           ;ACD_LCD_main.c: 275:     {;ACD_LCD_main.c: 276:       LCD_Char(*msg);
  4217   0051BC  0060  F033  FFF6   	movff	LCD_String@msg,tblptrl
  4218   0051C2  0060  F037  FFF7   	movff	LCD_String@msg+1,tblptrh
  4219   0051C8  0E00               	movlw	low (__smallconst shr (0+16))
  4220   0051CA  6EF8               	movwf	tblptru,c
  4221   0051CC  0E1F               	movlw	(high __ramtop+-1)
  4222   0051CE  64F7               	cpfsgt	tblptrh,c
  4223   0051D0  D003               	bra	u2587
  4224   0051D2  0008               	tblrd		*
  4225   0051D4  50F5               	movf	tablat,w,c
  4226   0051D6  D007               	bra	u2580
  4227   0051D8                     u2587:
  4228   0051D8  006F FFDB FFE1     	movff	tblptrl,fsr1l
  4229   0051DE  006F FFDF FFE2     	movff	tblptrh,fsr1h
  4230   0051E4  50E7               	movf	indf1,w,c
  4231   0051E6                     u2580:
  4232   0051E6  EC69  F02A         	call	_LCD_Char
  4233   0051EA                     
  4234                           ;ACD_LCD_main.c: 277:       msg++;
  4235   0051EA  4A0C               	infsnz	LCD_String@msg^0,f,c
  4236   0051EC  2A0D               	incf	(LCD_String@msg+1)^0,f,c
  4237   0051EE                     l2529:
  4238                           
  4239                           ;ACD_LCD_main.c: 274:     while((*msg)!=0)
  4240   0051EE  0060  F033  FFF6   	movff	LCD_String@msg,tblptrl
  4241   0051F4  0060  F037  FFF7   	movff	LCD_String@msg+1,tblptrh
  4242   0051FA  0E00               	movlw	low (__smallconst shr (0+16))
  4243   0051FC  6EF8               	movwf	tblptru,c
  4244   0051FE  0E1F               	movlw	(high __ramtop+-1)
  4245   005200  64F7               	cpfsgt	tblptrh,c
  4246   005202  D003               	bra	u2597
  4247   005204  0008               	tblrd		*
  4248   005206  50F5               	movf	tablat,w,c
  4249   005208  D007               	bra	u2590
  4250   00520A                     u2597:
  4251   00520A  006F FFDB FFE1     	movff	tblptrl,fsr1l
  4252   005210  006F FFDF FFE2     	movff	tblptrh,fsr1h
  4253   005216  50E7               	movf	indf1,w,c
  4254   005218                     u2590:
  4255   005218  0900               	iorlw	0
  4256   00521A  A4D8               	btfss	status,2,c
  4257   00521C  EF12  F029         	goto	u2601
  4258   005220  EF14  F029         	goto	u2600
  4259   005224                     u2601:
  4260   005224  EFDE  F028         	goto	l2525
  4261   005228                     u2600:
  4262   005228  0012               	return		;funcret
  4263   00522A                     __end_of_LCD_String:
  4264                           	callstack 0
  4265                           
  4266 ;; *************** function _LCD_Char *****************
  4267 ;; Defined at:
  4268 ;;		line 261 in file "ACD_LCD_main.c"
  4269 ;; Parameters:    Size  Location     Type
  4270 ;;  dat             1    wreg     unsigned char 
  4271 ;; Auto vars:     Size  Location     Type
  4272 ;;  dat             1   10[COMRAM] unsigned char 
  4273 ;; Return value:  Size  Location     Type
  4274 ;;                  1    wreg      void 
  4275 ;; Registers used:
  4276 ;;		wreg, status,2, status,0, cstack
  4277 ;; Tracked objects:
  4278 ;;		On entry : 0/0
  4279 ;;		On exit  : 0/0
  4280 ;;		Unchanged: 0/0
  4281 ;; Data sizes:     COMRAM   BANK0   BANK1   BANK2   BANK3   BANK4   BANK5   BANK6   BANK7   BANK8   BANK9  BANK10  BANK1
      +1  BANK12  BANK13  BANK14  BANK15  BANK16  BANK17  BANK18  BANK19  BANK20  BANK21  BANK22  BANK23  BANK24  BANK25  BANK2
      +6  BANK27  BANK28  BANK29  BANK30  BANK31
  4282 ;;      Params:         0       0       0       0       0       0       0       0       0       0       0       0       
      +0       0       0       0       0       0       0       0       0       0       0       0       0       0       0       
      +0       0       0       0       0       0
  4283 ;;      Locals:         1       0       0       0       0       0       0       0       0       0       0       0       
      +0       0       0       0       0       0       0       0       0       0       0       0       0       0       0       
      +0       0       0       0       0       0
  4284 ;;      Temps:          0       0       0       0       0       0       0       0       0       0       0       0       
      +0       0       0       0       0       0       0       0       0       0       0       0       0       0       0       
      +0       0       0       0       0       0
  4285 ;;      Totals:         1       0       0       0       0       0       0       0       0       0       0       0       
      +0       0       0       0       0       0       0       0       0       0       0       0       0       0       0       
      +0       0       0       0       0       0
  4286 ;;Total ram usage:        1 bytes
  4287 ;; Hardware stack levels used: 1
  4288 ;; Hardware stack levels required when called: 2
  4289 ;; This function calls:
  4290 ;;		_MSdelay
  4291 ;; This function is called by:
  4292 ;;		_LCD_String
  4293 ;; This function uses a non-reentrant model
  4294 ;;
  4295                           
  4296                           	psect	text16
  4297   0054D2                     __ptext16:
  4298                           	callstack 0
  4299   0054D2                     _LCD_Char:
  4300                           	callstack 26
  4301                           
  4302                           ;incstack = 0
  4303                           ;LCD_Char@dat stored from wreg
  4304   0054D2  6E0B               	movwf	LCD_Char@dat^0,c
  4305   0054D4                     
  4306                           ;ACD_LCD_main.c: 261: void LCD_Char(char dat);ACD_LCD_main.c: 262: {;ACD_LCD_main.c: 263
      +                          :     LATB= dat;
  4307   0054D4  0060  F02F  FFBB   	movff	LCD_Char@dat,16315	;volatile
  4308   0054DA                     
  4309                           ;ACD_LCD_main.c: 264:     LATD0 = 1;
  4310   0054DA  80BD               	bsf	16317,0,c	;volatile
  4311   0054DC                     
  4312                           ;ACD_LCD_main.c: 265:     LATD1=1;
  4313   0054DC  82BD               	bsf	16317,1,c	;volatile
  4314   0054DE                     
  4315                           ;ACD_LCD_main.c: 266:     __nop();
  4316   0054DE  0000               	nop	
  4317   0054E0                     
  4318                           ;ACD_LCD_main.c: 267:     LATD1=0;
  4319   0054E0  92BD               	bcf	16317,1,c	;volatile
  4320   0054E2                     
  4321                           ;ACD_LCD_main.c: 268:     MSdelay(1);
  4322   0054E2  0E00               	movlw	0
  4323   0054E4  6E06               	movwf	(MSdelay@val+1)^0,c
  4324   0054E6  0E01               	movlw	1
  4325   0054E8  6E05               	movwf	MSdelay@val^0,c
  4326   0054EA  EC7E  F029         	call	_MSdelay	;wreg free
  4327   0054EE  0012               	return		;funcret
  4328   0054F0                     __end_of_LCD_Char:
  4329                           	callstack 0
  4330                           
  4331 ;; *************** function _LCD_Init *****************
  4332 ;; Defined at:
  4333 ;;		line 235 in file "ACD_LCD_main.c"
  4334 ;; Parameters:    Size  Location     Type
  4335 ;;		None
  4336 ;; Auto vars:     Size  Location     Type
  4337 ;;		None
  4338 ;; Return value:  Size  Location     Type
  4339 ;;                  1    wreg      void 
  4340 ;; Registers used:
  4341 ;;		wreg, status,2, status,0, cstack
  4342 ;; Tracked objects:
  4343 ;;		On entry : 0/0
  4344 ;;		On exit  : 0/0
  4345 ;;		Unchanged: 0/0
  4346 ;; Data sizes:     COMRAM   BANK0   BANK1   BANK2   BANK3   BANK4   BANK5   BANK6   BANK7   BANK8   BANK9  BANK10  BANK1
      +1  BANK12  BANK13  BANK14  BANK15  BANK16  BANK17  BANK18  BANK19  BANK20  BANK21  BANK22  BANK23  BANK24  BANK25  BANK2
      +6  BANK27  BANK28  BANK29  BANK30  BANK31
  4347 ;;      Params:         0       0       0       0       0       0       0       0       0       0       0       0       
      +0       0       0       0       0       0       0       0       0       0       0       0       0       0       0       
      +0       0       0       0       0       0
  4348 ;;      Locals:         0       0       0       0       0       0       0       0       0       0       0       0       
      +0       0       0       0       0       0       0       0       0       0       0       0       0       0       0       
      +0       0       0       0       0       0
  4349 ;;      Temps:          0       0       0       0       0       0       0       0       0       0       0       0       
      +0       0       0       0       0       0       0       0       0       0       0       0       0       0       0       
      +0       0       0       0       0       0
  4350 ;;      Totals:         0       0       0       0       0       0       0       0       0       0       0       0       
      +0       0       0       0       0       0       0       0       0       0       0       0       0       0       0       
      +0       0       0       0       0       0
  4351 ;;Total ram usage:        0 bytes
  4352 ;; Hardware stack levels used: 1
  4353 ;; Hardware stack levels required when called: 3
  4354 ;; This function calls:
  4355 ;;		_LCD_Command
  4356 ;;		_MSdelay
  4357 ;; This function is called by:
  4358 ;;		_main
  4359 ;; This function uses a non-reentrant model
  4360 ;;
  4361                           
  4362                           	psect	text17
  4363   00545C                     __ptext17:
  4364                           	callstack 0
  4365   00545C                     _LCD_Init:
  4366                           	callstack 27
  4367   00545C                     
  4368                           ;ACD_LCD_main.c: 237:     MSdelay(500);
  4369   00545C  0E01               	movlw	1
  4370   00545E  6E06               	movwf	(MSdelay@val+1)^0,c
  4371   005460  0EF4               	movlw	244
  4372   005462  6E05               	movwf	MSdelay@val^0,c
  4373   005464  EC7E  F029         	call	_MSdelay	;wreg free
  4374   005468                     
  4375                           ;ACD_LCD_main.c: 238:     TRISB = 0x00;
  4376   005468  6AC3               	clrf	195,c	;volatile
  4377   00546A                     
  4378                           ;ACD_LCD_main.c: 239:     TRISD = 0x00;
  4379   00546A  6AC5               	clrf	197,c	;volatile
  4380                           
  4381                           ;ACD_LCD_main.c: 240:     LCD_Command(0x01);
  4382   00546C  0E01               	movlw	1
  4383   00546E  EC78  F02A         	call	_LCD_Command
  4384                           
  4385                           ;ACD_LCD_main.c: 241:     LCD_Command(0x38);
  4386   005472  0E38               	movlw	56
  4387   005474  EC78  F02A         	call	_LCD_Command
  4388                           
  4389                           ;ACD_LCD_main.c: 242:     LCD_Command(0x0c);
  4390   005478  0E0C               	movlw	12
  4391   00547A  EC78  F02A         	call	_LCD_Command
  4392                           
  4393                           ;ACD_LCD_main.c: 243:     LCD_Command(0x06);
  4394   00547E  0E06               	movlw	6
  4395   005480  EC78  F02A         	call	_LCD_Command
  4396   005484  0012               	return		;funcret
  4397   005486                     __end_of_LCD_Init:
  4398                           	callstack 0
  4399                           
  4400 ;; *************** function _LCD_Command *****************
  4401 ;; Defined at:
  4402 ;;		line 251 in file "ACD_LCD_main.c"
  4403 ;; Parameters:    Size  Location     Type
  4404 ;;  cmd             1    wreg     unsigned char 
  4405 ;; Auto vars:     Size  Location     Type
  4406 ;;  cmd             1   10[COMRAM] unsigned char 
  4407 ;; Return value:  Size  Location     Type
  4408 ;;                  1    wreg      void 
  4409 ;; Registers used:
  4410 ;;		wreg, status,2, status,0, cstack
  4411 ;; Tracked objects:
  4412 ;;		On entry : 0/0
  4413 ;;		On exit  : 0/0
  4414 ;;		Unchanged: 0/0
  4415 ;; Data sizes:     COMRAM   BANK0   BANK1   BANK2   BANK3   BANK4   BANK5   BANK6   BANK7   BANK8   BANK9  BANK10  BANK1
      +1  BANK12  BANK13  BANK14  BANK15  BANK16  BANK17  BANK18  BANK19  BANK20  BANK21  BANK22  BANK23  BANK24  BANK25  BANK2
      +6  BANK27  BANK28  BANK29  BANK30  BANK31
  4416 ;;      Params:         0       0       0       0       0       0       0       0       0       0       0       0       
      +0       0       0       0       0       0       0       0       0       0       0       0       0       0       0       
      +0       0       0       0       0       0
  4417 ;;      Locals:         1       0       0       0       0       0       0       0       0       0       0       0       
      +0       0       0       0       0       0       0       0       0       0       0       0       0       0       0       
      +0       0       0       0       0       0
  4418 ;;      Temps:          0       0       0       0       0       0       0       0       0       0       0       0       
      +0       0       0       0       0       0       0       0       0       0       0       0       0       0       0       
      +0       0       0       0       0       0
  4419 ;;      Totals:         1       0       0       0       0       0       0       0       0       0       0       0       
      +0       0       0       0       0       0       0       0       0       0       0       0       0       0       0       
      +0       0       0       0       0       0
  4420 ;;Total ram usage:        1 bytes
  4421 ;; Hardware stack levels used: 1
  4422 ;; Hardware stack levels required when called: 2
  4423 ;; This function calls:
  4424 ;;		_MSdelay
  4425 ;; This function is called by:
  4426 ;;		_LCD_Init
  4427 ;;		_LCD_String_xy
  4428 ;;		_LCD_Clear
  4429 ;; This function uses a non-reentrant model
  4430 ;;
  4431                           
  4432                           	psect	text18
  4433   0054F0                     __ptext18:
  4434                           	callstack 0
  4435   0054F0                     _LCD_Command:
  4436                           	callstack 27
  4437                           
  4438                           ;incstack = 0
  4439                           ;LCD_Command@cmd stored from wreg
  4440   0054F0  6E0B               	movwf	LCD_Command@cmd^0,c
  4441   0054F2                     
  4442                           ;ACD_LCD_main.c: 251: void LCD_Command(char cmd );ACD_LCD_main.c: 252: {;ACD_LCD_main.c:
      +                           253:     LATB= cmd;
  4443   0054F2  0060  F02F  FFBB   	movff	LCD_Command@cmd,16315	;volatile
  4444   0054F8                     
  4445                           ;ACD_LCD_main.c: 254:     LATD0 = 0;
  4446   0054F8  90BD               	bcf	16317,0,c	;volatile
  4447   0054FA                     
  4448                           ;ACD_LCD_main.c: 255:     LATD1 = 1;
  4449   0054FA  82BD               	bsf	16317,1,c	;volatile
  4450   0054FC                     
  4451                           ;ACD_LCD_main.c: 256:     __nop();
  4452   0054FC  0000               	nop	
  4453   0054FE                     
  4454                           ;ACD_LCD_main.c: 257:     LATD1 = 0;
  4455   0054FE  92BD               	bcf	16317,1,c	;volatile
  4456   005500                     
  4457                           ;ACD_LCD_main.c: 258:     MSdelay(3);
  4458   005500  0E00               	movlw	0
  4459   005502  6E06               	movwf	(MSdelay@val+1)^0,c
  4460   005504  0E03               	movlw	3
  4461   005506  6E05               	movwf	MSdelay@val^0,c
  4462   005508  EC7E  F029         	call	_MSdelay	;wreg free
  4463   00550C  0012               	return		;funcret
  4464   00550E                     __end_of_LCD_Command:
  4465                           	callstack 0
  4466                           
  4467 ;; *************** function _MSdelay *****************
  4468 ;; Defined at:
  4469 ;;		line 298 in file "ACD_LCD_main.c"
  4470 ;; Parameters:    Size  Location     Type
  4471 ;;  val             2    4[COMRAM] unsigned int 
  4472 ;; Auto vars:     Size  Location     Type
  4473 ;;  j               2    8[COMRAM] unsigned int 
  4474 ;;  i               2    6[COMRAM] unsigned int 
  4475 ;; Return value:  Size  Location     Type
  4476 ;;                  1    wreg      void 
  4477 ;; Registers used:
  4478 ;;		wreg, status,2, status,0
  4479 ;; Tracked objects:
  4480 ;;		On entry : 0/0
  4481 ;;		On exit  : 0/0
  4482 ;;		Unchanged: 0/0
  4483 ;; Data sizes:     COMRAM   BANK0   BANK1   BANK2   BANK3   BANK4   BANK5   BANK6   BANK7   BANK8   BANK9  BANK10  BANK1
      +1  BANK12  BANK13  BANK14  BANK15  BANK16  BANK17  BANK18  BANK19  BANK20  BANK21  BANK22  BANK23  BANK24  BANK25  BANK2
      +6  BANK27  BANK28  BANK29  BANK30  BANK31
  4484 ;;      Params:         2       0       0       0       0       0       0       0       0       0       0       0       
      +0       0       0       0       0       0       0       0       0       0       0       0       0       0       0       
      +0       0       0       0       0       0
  4485 ;;      Locals:         4       0       0       0       0       0       0       0       0       0       0       0       
      +0       0       0       0       0       0       0       0       0       0       0       0       0       0       0       
      +0       0       0       0       0       0
  4486 ;;      Temps:          0       0       0       0       0       0       0       0       0       0       0       0       
      +0       0       0       0       0       0       0       0       0       0       0       0       0       0       0       
      +0       0       0       0       0       0
  4487 ;;      Totals:         6       0       0       0       0       0       0       0       0       0       0       0       
      +0       0       0       0       0       0       0       0       0       0       0       0       0       0       0       
      +0       0       0       0       0       0
  4488 ;;Total ram usage:        6 bytes
  4489 ;; Hardware stack levels used: 1
  4490 ;; Hardware stack levels required when called: 1
  4491 ;; This function calls:
  4492 ;;		Nothing
  4493 ;; This function is called by:
  4494 ;;		_LCD_Init
  4495 ;;		_LCD_Command
  4496 ;;		_LCD_Char
  4497 ;; This function uses a non-reentrant model
  4498 ;;
  4499                           
  4500                           	psect	text19
  4501   0052FC                     __ptext19:
  4502                           	callstack 0
  4503   0052FC                     _MSdelay:
  4504                           	callstack 26
  4505   0052FC                     
  4506                           ;ACD_LCD_main.c: 298: void MSdelay(unsigned int val);ACD_LCD_main.c: 299: {;ACD_LCD_main
      +                          .c: 300:      unsigned int i,j;;ACD_LCD_main.c: 301:         for(i=0;i<val;i++)
  4507   0052FC  0E00               	movlw	0
  4508   0052FE  6E08               	movwf	(MSdelay@i+1)^0,c
  4509   005300  0E00               	movlw	0
  4510   005302  6E07               	movwf	MSdelay@i^0,c
  4511   005304  EF97  F029         	goto	l2349
  4512   005308                     l2337:
  4513                           
  4514                           ;ACD_LCD_main.c: 302:             for(j=0;j<165;j++);
  4515   005308  0E00               	movlw	0
  4516   00530A  6E0A               	movwf	(MSdelay@j+1)^0,c
  4517   00530C  0E00               	movlw	0
  4518   00530E  6E09               	movwf	MSdelay@j^0,c
  4519   005310                     l2343:
  4520   005310  4A09               	infsnz	MSdelay@j^0,f,c
  4521   005312  2A0A               	incf	(MSdelay@j+1)^0,f,c
  4522   005314  500A               	movf	(MSdelay@j+1)^0,w,c
  4523   005316  E109               	bnz	u2290
  4524   005318  0EA5               	movlw	165
  4525   00531A  5C09               	subwf	MSdelay@j^0,w,c
  4526   00531C  A0D8               	btfss	status,0,c
  4527   00531E  EF93  F029         	goto	u2291
  4528   005322  EF95  F029         	goto	u2290
  4529   005326                     u2291:
  4530   005326  EF88  F029         	goto	l2343
  4531   00532A                     u2290:
  4532   00532A  4A07               	infsnz	MSdelay@i^0,f,c
  4533   00532C  2A08               	incf	(MSdelay@i+1)^0,f,c
  4534   00532E                     l2349:
  4535   00532E  5005               	movf	MSdelay@val^0,w,c
  4536   005330  5C07               	subwf	MSdelay@i^0,w,c
  4537   005332  5006               	movf	(MSdelay@val+1)^0,w,c
  4538   005334  5808               	subwfb	(MSdelay@i+1)^0,w,c
  4539   005336  A0D8               	btfss	status,0,c
  4540   005338  EFA0  F029         	goto	u2301
  4541   00533C  EFA2  F029         	goto	u2300
  4542   005340                     u2301:
  4543   005340  EF84  F029         	goto	l2337
  4544   005344                     u2300:
  4545   005344  0012               	return		;funcret
  4546   005346                     __end_of_MSdelay:
  4547                           	callstack 0
  4548                           
  4549 ;; *************** function _IOCC2_Init *****************
  4550 ;; Defined at:
  4551 ;;		line 214 in file "ACD_LCD_main.c"
  4552 ;; Parameters:    Size  Location     Type
  4553 ;;		None
  4554 ;; Auto vars:     Size  Location     Type
  4555 ;;		None
  4556 ;; Return value:  Size  Location     Type
  4557 ;;                  1    wreg      void 
  4558 ;; Registers used:
  4559 ;;		wreg, status,2
  4560 ;; Tracked objects:
  4561 ;;		On entry : 0/0
  4562 ;;		On exit  : 0/0
  4563 ;;		Unchanged: 0/0
  4564 ;; Data sizes:     COMRAM   BANK0   BANK1   BANK2   BANK3   BANK4   BANK5   BANK6   BANK7   BANK8   BANK9  BANK10  BANK1
      +1  BANK12  BANK13  BANK14  BANK15  BANK16  BANK17  BANK18  BANK19  BANK20  BANK21  BANK22  BANK23  BANK24  BANK25  BANK2
      +6  BANK27  BANK28  BANK29  BANK30  BANK31
  4565 ;;      Params:         0       0       0       0       0       0       0       0       0       0       0       0       
      +0       0       0       0       0       0       0       0       0       0       0       0       0       0       0       
      +0       0       0       0       0       0
  4566 ;;      Locals:         0       0       0       0       0       0       0       0       0       0       0       0       
      +0       0       0       0       0       0       0       0       0       0       0       0       0       0       0       
      +0       0       0       0       0       0
  4567 ;;      Temps:          0       0       0       0       0       0       0       0       0       0       0       0       
      +0       0       0       0       0       0       0       0       0       0       0       0       0       0       0       
      +0       0       0       0       0       0
  4568 ;;      Totals:         0       0       0       0       0       0       0       0       0       0       0       0       
      +0       0       0       0       0       0       0       0       0       0       0       0       0       0       0       
      +0       0       0       0       0       0
  4569 ;;Total ram usage:        0 bytes
  4570 ;; Hardware stack levels used: 1
  4571 ;; Hardware stack levels required when called: 1
  4572 ;; This function calls:
  4573 ;;		Nothing
  4574 ;; This function is called by:
  4575 ;;		_main
  4576 ;; This function uses a non-reentrant model
  4577 ;;
  4578                           
  4579                           	psect	text20
  4580   0054AE                     __ptext20:
  4581                           	callstack 0
  4582   0054AE                     _IOCC2_Init:
  4583                           	callstack 29
  4584   0054AE                     
  4585                           ;ACD_LCD_main.c: 215:     TRISCbits.TRISC2 = 1;
  4586   0054AE  84C4               	bsf	196,2,c	;volatile
  4587                           
  4588                           ;ACD_LCD_main.c: 216:     ANSELCbits.ANSELC2 = 0;
  4589   0054B0  013A               	movlb	58	; () banked
  4590   0054B2  9560               	bcf	96,2,b	;volatile
  4591                           
  4592                           ;ACD_LCD_main.c: 217:     WPUCbits.WPUC2 = 1;
  4593   0054B4  8561               	bsf	97,2,b	;volatile
  4594                           
  4595                           ;ACD_LCD_main.c: 219:     IOCCPbits.IOCCP2 = 0;
  4596   0054B6  9565               	bcf	101,2,b	;volatile
  4597                           
  4598                           ;ACD_LCD_main.c: 220:     IOCCNbits.IOCCN2 = 1;
  4599   0054B8  8566               	bsf	102,2,b	;volatile
  4600                           
  4601                           ;ACD_LCD_main.c: 221:     IOCCFbits.IOCCF2 = 0;
  4602   0054BA  9567               	bcf	103,2,b	;volatile
  4603                           
  4604                           ;ACD_LCD_main.c: 222:     PIR0bits.IOCIF = 0;
  4605   0054BC  0139               	movlb	57	; () banked
  4606   0054BE  9FA0               	bcf	160,7,b	;volatile
  4607                           
  4608                           ;ACD_LCD_main.c: 224:     PIE0bits.IOCIE = 1;
  4609   0054C0  8F90               	bsf	144,7,b	;volatile
  4610                           
  4611                           ;ACD_LCD_main.c: 225:     INTCON0bits.GIE = 1;
  4612   0054C2  8ED2               	bsf	210,7,c	;volatile
  4613                           
  4614                           ;ACD_LCD_main.c: 226:     INTCON0bits.IPEN = 0;
  4615   0054C4  9AD2               	bcf	210,5,c	;volatile
  4616                           
  4617                           ;ACD_LCD_main.c: 228:     IVTBASEU = 0x00;
  4618   0054C6  6AD7               	clrf	215,c	;volatile
  4619   0054C8                     
  4620                           ; BSR set to: 57
  4621                           ;ACD_LCD_main.c: 229:     IVTBASEH = 0x40;
  4622   0054C8  0E40               	movlw	64
  4623   0054CA  6ED6               	movwf	214,c	;volatile
  4624                           
  4625                           ;ACD_LCD_main.c: 230:     IVTBASEL = 0x08;
  4626   0054CC  0E08               	movlw	8
  4627   0054CE  6ED5               	movwf	213,c	;volatile
  4628   0054D0                     
  4629                           ; BSR set to: 57
  4630   0054D0  0012               	return		;funcret
  4631   0054D2                     __end_of_IOCC2_Init:
  4632                           	callstack 0
  4633                           
  4634 ;; *************** function _ADC_Init *****************
  4635 ;; Defined at:
  4636 ;;		line 305 in file "ACD_LCD_main.c"
  4637 ;; Parameters:    Size  Location     Type
  4638 ;;		None
  4639 ;; Auto vars:     Size  Location     Type
  4640 ;;		None
  4641 ;; Return value:  Size  Location     Type
  4642 ;;                  1    wreg      void 
  4643 ;; Registers used:
  4644 ;;		wreg, status,2
  4645 ;; Tracked objects:
  4646 ;;		On entry : 0/0
  4647 ;;		On exit  : 0/0
  4648 ;;		Unchanged: 0/0
  4649 ;; Data sizes:     COMRAM   BANK0   BANK1   BANK2   BANK3   BANK4   BANK5   BANK6   BANK7   BANK8   BANK9  BANK10  BANK1
      +1  BANK12  BANK13  BANK14  BANK15  BANK16  BANK17  BANK18  BANK19  BANK20  BANK21  BANK22  BANK23  BANK24  BANK25  BANK2
      +6  BANK27  BANK28  BANK29  BANK30  BANK31
  4650 ;;      Params:         0       0       0       0       0       0       0       0       0       0       0       0       
      +0       0       0       0       0       0       0       0       0       0       0       0       0       0       0       
      +0       0       0       0       0       0
  4651 ;;      Locals:         0       0       0       0       0       0       0       0       0       0       0       0       
      +0       0       0       0       0       0       0       0       0       0       0       0       0       0       0       
      +0       0       0       0       0       0
  4652 ;;      Temps:          0       0       0       0       0       0       0       0       0       0       0       0       
      +0       0       0       0       0       0       0       0       0       0       0       0       0       0       0       
      +0       0       0       0       0       0
  4653 ;;      Totals:         0       0       0       0       0       0       0       0       0       0       0       0       
      +0       0       0       0       0       0       0       0       0       0       0       0       0       0       0       
      +0       0       0       0       0       0
  4654 ;;Total ram usage:        0 bytes
  4655 ;; Hardware stack levels used: 1
  4656 ;; Hardware stack levels required when called: 1
  4657 ;; This function calls:
  4658 ;;		Nothing
  4659 ;; This function is called by:
  4660 ;;		_main
  4661 ;; This function uses a non-reentrant model
  4662 ;;
  4663                           
  4664                           	psect	text21
  4665   005486                     __ptext21:
  4666                           	callstack 0
  4667   005486                     _ADC_Init:
  4668                           	callstack 29
  4669   005486                     
  4670                           ;ACD_LCD_main.c: 308:     ADCON0bits.FM = 1;
  4671   005486  013E               	movlb	62	; () banked
  4672   005488  51F8               	movf	248,w,b	;volatile
  4673   00548A  0BF3               	andlw	-13
  4674   00548C  0904               	iorlw	4
  4675   00548E  6FF8               	movwf	248,b	;volatile
  4676   005490                     
  4677                           ; BSR set to: 62
  4678                           ;ACD_LCD_main.c: 309:     ADCON0bits.CS = 1;
  4679   005490  89F8               	bsf	248,4,b	;volatile
  4680   005492                     
  4681                           ; BSR set to: 62
  4682                           ;ACD_LCD_main.c: 311:     TRISAbits.TRISA0 = 1;
  4683   005492  80C2               	bsf	194,0,c	;volatile
  4684   005494                     
  4685                           ; BSR set to: 62
  4686                           ;ACD_LCD_main.c: 312:     ANSELAbits.ANSELA0 = 1;
  4687   005494  013A               	movlb	58	; () banked
  4688   005496  8140               	bsf	64,0,b	;volatile
  4689   005498                     
  4690                           ; BSR set to: 58
  4691                           ;ACD_LCD_main.c: 314:     ADPCH = 0x00;
  4692   005498  013E               	movlb	62	; () banked
  4693   00549A  6BF1               	clrf	241,b	;volatile
  4694   00549C                     
  4695                           ; BSR set to: 62
  4696                           ;ACD_LCD_main.c: 315:     ADCLK = 0x00;
  4697   00549C  6BFF               	clrf	255,b	;volatile
  4698   00549E                     
  4699                           ; BSR set to: 62
  4700                           ;ACD_LCD_main.c: 317:     ADRESH = 0x00;
  4701   00549E  6BF0               	clrf	240,b	;volatile
  4702   0054A0                     
  4703                           ; BSR set to: 62
  4704                           ;ACD_LCD_main.c: 318:     ADRESL = 0x00;
  4705   0054A0  6BEF               	clrf	239,b	;volatile
  4706   0054A2                     
  4707                           ; BSR set to: 62
  4708                           ;ACD_LCD_main.c: 320:     ADPREL = 0x00;
  4709   0054A2  6BF6               	clrf	246,b	;volatile
  4710   0054A4                     
  4711                           ; BSR set to: 62
  4712                           ;ACD_LCD_main.c: 321:     ADPREH = 0x00;
  4713   0054A4  6BF7               	clrf	247,b	;volatile
  4714   0054A6                     
  4715                           ; BSR set to: 62
  4716                           ;ACD_LCD_main.c: 323:     ADACQL = 0x00;
  4717   0054A6  6BF3               	clrf	243,b	;volatile
  4718   0054A8                     
  4719                           ; BSR set to: 62
  4720                           ;ACD_LCD_main.c: 324:     ADACQH = 0x00;
  4721   0054A8  6BF4               	clrf	244,b	;volatile
  4722   0054AA                     
  4723                           ; BSR set to: 62
  4724                           ;ACD_LCD_main.c: 326:     ADCON0bits.ON = 1;
  4725   0054AA  8FF8               	bsf	248,7,b	;volatile
  4726   0054AC                     
  4727                           ; BSR set to: 62
  4728   0054AC  0012               	return		;funcret
  4729   0054AE                     __end_of_ADC_Init:
  4730                           	callstack 0
  4731                           
  4732 ;; *************** function _IOC_ISR *****************
  4733 ;; Defined at:
  4734 ;;		line 137 in file "ACD_LCD_main.c"
  4735 ;; Parameters:    Size  Location     Type
  4736 ;;		None
  4737 ;; Auto vars:     Size  Location     Type
  4738 ;;  i               2    2[COMRAM] int 
  4739 ;; Return value:  Size  Location     Type
  4740 ;;                  1    wreg      void 
  4741 ;; Registers used:
  4742 ;;		wreg, status,2, status,0
  4743 ;; Tracked objects:
  4744 ;;		On entry : 0/0
  4745 ;;		On exit  : 0/0
  4746 ;;		Unchanged: 0/0
  4747 ;; Data sizes:     COMRAM   BANK0   BANK1   BANK2   BANK3   BANK4   BANK5   BANK6   BANK7   BANK8   BANK9  BANK10  BANK1
      +1  BANK12  BANK13  BANK14  BANK15  BANK16  BANK17  BANK18  BANK19  BANK20  BANK21  BANK22  BANK23  BANK24  BANK25  BANK2
      +6  BANK27  BANK28  BANK29  BANK30  BANK31
  4748 ;;      Params:         0       0       0       0       0       0       0       0       0       0       0       0       
      +0       0       0       0       0       0       0       0       0       0       0       0       0       0       0       
      +0       0       0       0       0       0
  4749 ;;      Locals:         2       0       0       0       0       0       0       0       0       0       0       0       
      +0       0       0       0       0       0       0       0       0       0       0       0       0       0       0       
      +0       0       0       0       0       0
  4750 ;;      Temps:          2       0       0       0       0       0       0       0       0       0       0       0       
      +0       0       0       0       0       0       0       0       0       0       0       0       0       0       0       
      +0       0       0       0       0       0
  4751 ;;      Totals:         4       0       0       0       0       0       0       0       0       0       0       0       
      +0       0       0       0       0       0       0       0       0       0       0       0       0       0       0       
      +0       0       0       0       0       0
  4752 ;;Total ram usage:        4 bytes
  4753 ;; Hardware stack levels used: 1
  4754 ;; This function calls:
  4755 ;;		Nothing
  4756 ;; This function is called by:
  4757 ;;		Interrupt level 2
  4758 ;; This function uses a non-reentrant model
  4759 ;;
  4760                           
  4761                           	psect	text22
  4762   00522C                     __ptext22:
  4763                           	callstack 0
  4764   00522C                     _IOC_ISR:
  4765                           	callstack 25
  4766   00522C                     
  4767                           ;ACD_LCD_main.c: 139:     if (IOCCFbits.IOCCF2)
  4768   00522C  013A               	movlb	58	; () banked
  4769   00522E  A567               	btfss	103,2,b	;volatile
  4770   005230  EF1C  F029         	goto	i2u112_41
  4771   005234  EF1E  F029         	goto	i2u112_40
  4772   005238                     i2u112_41:
  4773   005238  EF4E  F029         	goto	i2l92
  4774   00523C                     i2u112_40:
  4775   00523C                     
  4776                           ; BSR set to: 58
  4777                           ;ACD_LCD_main.c: 140:     {;ACD_LCD_main.c: 141:         for (int i = 0; i < 20; i++) {
  4778   00523C  0E00               	movlw	0
  4779   00523E  6E04               	movwf	(IOC_ISR@i+1)^0,c
  4780   005240  0E00               	movlw	0
  4781   005242  6E03               	movwf	IOC_ISR@i^0,c
  4782   005244                     i2l90:
  4783                           
  4784                           ;ACD_LCD_main.c: 142:                 LATCbits.LATC3 = 1;
  4785   005244  86BC               	bsf	188,3,c	;volatile
  4786   005246                     
  4787                           ;ACD_LCD_main.c: 143:                 _delay((unsigned long)((250)*(4000000/4000.0)));
  4788   005246  0E02               	movlw	2
  4789   005248  6E02               	movwf	(??_IOC_ISR+1)^0,c
  4790   00524A  0E45               	movlw	69
  4791   00524C  6E01               	movwf	??_IOC_ISR^0,c
  4792   00524E  0EAA               	movlw	170
  4793   005250                     i2u343_47:
  4794   005250  2EE8               	decfsz	wreg,f,c
  4795   005252  D7FE               	bra	i2u343_47
  4796   005254  2E01               	decfsz	??_IOC_ISR^0,f,c
  4797   005256  D7FC               	bra	i2u343_47
  4798   005258  2E02               	decfsz	(??_IOC_ISR+1)^0,f,c
  4799   00525A  D7FA               	bra	i2u343_47
  4800   00525C                     
  4801                           ;ACD_LCD_main.c: 144:                 LATCbits.LATC3 = 0;
  4802   00525C  96BC               	bcf	188,3,c	;volatile
  4803                           
  4804                           ;ACD_LCD_main.c: 145:                 _delay((unsigned long)((250)*(4000000/4000.0)));
  4805   00525E  0E02               	movlw	2
  4806   005260  6E02               	movwf	(??_IOC_ISR+1)^0,c
  4807   005262  0E45               	movlw	69
  4808   005264  6E01               	movwf	??_IOC_ISR^0,c
  4809   005266  0EAA               	movlw	170
  4810   005268                     i2u344_47:
  4811   005268  2EE8               	decfsz	wreg,f,c
  4812   00526A  D7FE               	bra	i2u344_47
  4813   00526C  2E01               	decfsz	??_IOC_ISR^0,f,c
  4814   00526E  D7FC               	bra	i2u344_47
  4815   005270  2E02               	decfsz	(??_IOC_ISR+1)^0,f,c
  4816   005272  D7FA               	bra	i2u344_47
  4817   005274                     
  4818                           ;ACD_LCD_main.c: 146:             }
  4819   005274  4A03               	infsnz	IOC_ISR@i^0,f,c
  4820   005276  2A04               	incf	(IOC_ISR@i+1)^0,f,c
  4821   005278  BE04               	btfsc	(IOC_ISR@i+1)^0,7,c
  4822   00527A  EF48  F029         	goto	i2u113_41
  4823   00527E  5004               	movf	(IOC_ISR@i+1)^0,w,c
  4824   005280  E109               	bnz	i2u113_40
  4825   005282  0E14               	movlw	20
  4826   005284  5C03               	subwf	IOC_ISR@i^0,w,c
  4827   005286  A0D8               	btfss	status,0,c
  4828   005288  EF48  F029         	goto	i2u113_41
  4829   00528C  EF4A  F029         	goto	i2u113_40
  4830   005290                     i2u113_41:
  4831   005290  EF22  F029         	goto	i2l90
  4832   005294                     i2u113_40:
  4833   005294                     
  4834                           ;ACD_LCD_main.c: 147:         IOCCFbits.IOCCF2 = 0;
  4835   005294  013A               	movlb	58	; () banked
  4836   005296  9567               	bcf	103,2,b	;volatile
  4837                           
  4838                           ;ACD_LCD_main.c: 148:         PIR0bits.IOCIF = 0;
  4839   005298  0139               	movlb	57	; () banked
  4840   00529A  9FA0               	bcf	160,7,b	;volatile
  4841   00529C                     i2l92:
  4842   00529C  0011               	retfie		f
  4843   00529E                     __end_of_IOC_ISR:
  4844                           	callstack 0
  4845                           
  4846                           ;
  4847                           ; H/W Interrupt Vector Table @ 0x4008
  4848                           ;
  4849                           
  4850                           	psect	ivt0x4008
  4851   004008                     __pivt0x4008:
  4852                           	callstack 0
  4853   004008                     ivt0x4008_base:
  4854                           	callstack 0
  4855                           
  4856                           ; Vector 0 : SWINT
  4857   004008  102B               	dw	ivt0x4008_undefint shr (0+2)
  4858                           
  4859                           ; Vector 1 : HLVD
  4860   00400A  102B               	dw	ivt0x4008_undefint shr (0+2)
  4861                           
  4862                           ; Vector 2 : OSF
  4863   00400C  102B               	dw	ivt0x4008_undefint shr (0+2)
  4864                           
  4865                           ; Vector 3 : CSW
  4866   00400E  102B               	dw	ivt0x4008_undefint shr (0+2)
  4867                           
  4868                           ; Vector 4 : NVM
  4869   004010  102B               	dw	ivt0x4008_undefint shr (0+2)
  4870                           
  4871                           ; Vector 5 : SCAN
  4872   004012  102B               	dw	ivt0x4008_undefint shr (0+2)
  4873                           
  4874                           ; Vector 6 : CRC
  4875   004014  102B               	dw	ivt0x4008_undefint shr (0+2)
  4876                           
  4877                           ; Vector 7 : IOC
  4878   004016  148B               	dw	_IOC_ISR shr (0+2)
  4879                           
  4880                           ; Vector 8 : INT0
  4881   004018  102B               	dw	ivt0x4008_undefint shr (0+2)
  4882                           
  4883                           ; Vector 9 : ZCD
  4884   00401A  102B               	dw	ivt0x4008_undefint shr (0+2)
  4885                           
  4886                           ; Vector 10 : AD
  4887   00401C  102B               	dw	ivt0x4008_undefint shr (0+2)
  4888                           
  4889                           ; Vector 11 : ADT
  4890   00401E  102B               	dw	ivt0x4008_undefint shr (0+2)
  4891                           
  4892                           ; Vector 12 : CMP1
  4893   004020  102B               	dw	ivt0x4008_undefint shr (0+2)
  4894                           
  4895                           ; Vector 13 : SMT1
  4896   004022  102B               	dw	ivt0x4008_undefint shr (0+2)
  4897                           
  4898                           ; Vector 14 : SMT1PRA
  4899   004024  102B               	dw	ivt0x4008_undefint shr (0+2)
  4900                           
  4901                           ; Vector 15 : SMT1PRW
  4902   004026  102B               	dw	ivt0x4008_undefint shr (0+2)
  4903                           
  4904                           ; Vector 16 : DMA1SCNT
  4905   004028  102B               	dw	ivt0x4008_undefint shr (0+2)
  4906                           
  4907                           ; Vector 17 : DMA1DCNT
  4908   00402A  102B               	dw	ivt0x4008_undefint shr (0+2)
  4909                           
  4910                           ; Vector 18 : DMA1OR
  4911   00402C  102B               	dw	ivt0x4008_undefint shr (0+2)
  4912                           
  4913                           ; Vector 19 : DMA1A
  4914   00402E  102B               	dw	ivt0x4008_undefint shr (0+2)
  4915                           
  4916                           ; Vector 20 : SPI1RX
  4917   004030  102B               	dw	ivt0x4008_undefint shr (0+2)
  4918                           
  4919                           ; Vector 21 : SPI1TX
  4920   004032  102B               	dw	ivt0x4008_undefint shr (0+2)
  4921                           
  4922                           ; Vector 22 : SPI1
  4923   004034  102B               	dw	ivt0x4008_undefint shr (0+2)
  4924                           
  4925                           ; Vector 23 : I2C1RX
  4926   004036  102B               	dw	ivt0x4008_undefint shr (0+2)
  4927                           
  4928                           ; Vector 24 : I2C1TX
  4929   004038  102B               	dw	ivt0x4008_undefint shr (0+2)
  4930                           
  4931                           ; Vector 25 : I2C1
  4932   00403A  102B               	dw	ivt0x4008_undefint shr (0+2)
  4933                           
  4934                           ; Vector 26 : I2C1E
  4935   00403C  102B               	dw	ivt0x4008_undefint shr (0+2)
  4936                           
  4937                           ; Vector 27 : U1RX
  4938   00403E  102B               	dw	ivt0x4008_undefint shr (0+2)
  4939                           
  4940                           ; Vector 28 : U1TX
  4941   004040  102B               	dw	ivt0x4008_undefint shr (0+2)
  4942                           
  4943                           ; Vector 29 : U1E
  4944   004042  102B               	dw	ivt0x4008_undefint shr (0+2)
  4945                           
  4946                           ; Vector 30 : U1
  4947   004044  102B               	dw	ivt0x4008_undefint shr (0+2)
  4948                           
  4949                           ; Vector 31 : TMR0
  4950   004046  102B               	dw	ivt0x4008_undefint shr (0+2)
  4951                           
  4952                           ; Vector 32 : TMR1
  4953   004048  102B               	dw	ivt0x4008_undefint shr (0+2)
  4954                           
  4955                           ; Vector 33 : TMR1G
  4956   00404A  102B               	dw	ivt0x4008_undefint shr (0+2)
  4957                           
  4958                           ; Vector 34 : TMR2
  4959   00404C  102B               	dw	ivt0x4008_undefint shr (0+2)
  4960                           
  4961                           ; Vector 35 : CCP1
  4962   00404E  102B               	dw	ivt0x4008_undefint shr (0+2)
  4963                           
  4964                           ; Vector 36 : Undefined
  4965   004050  102B               	dw	ivt0x4008_undefint shr (0+2)
  4966                           
  4967                           ; Vector 37 : NCO1
  4968   004052  102B               	dw	ivt0x4008_undefint shr (0+2)
  4969                           
  4970                           ; Vector 38 : CWG1
  4971   004054  102B               	dw	ivt0x4008_undefint shr (0+2)
  4972                           
  4973                           ; Vector 39 : CLC1
  4974   004056  102B               	dw	ivt0x4008_undefint shr (0+2)
  4975                           
  4976                           ; Vector 40 : INT1
  4977   004058  102B               	dw	ivt0x4008_undefint shr (0+2)
  4978                           
  4979                           ; Vector 41 : CMP2
  4980   00405A  102B               	dw	ivt0x4008_undefint shr (0+2)
  4981                           
  4982                           ; Vector 42 : DMA2SCNT
  4983   00405C  102B               	dw	ivt0x4008_undefint shr (0+2)
  4984                           
  4985                           ; Vector 43 : DMA2DCNT
  4986   00405E  102B               	dw	ivt0x4008_undefint shr (0+2)
  4987                           
  4988                           ; Vector 44 : DMA2OR
  4989   004060  102B               	dw	ivt0x4008_undefint shr (0+2)
  4990                           
  4991                           ; Vector 45 : DMA2A
  4992   004062  102B               	dw	ivt0x4008_undefint shr (0+2)
  4993                           
  4994                           ; Vector 46 : I2C2RX
  4995   004064  102B               	dw	ivt0x4008_undefint shr (0+2)
  4996                           
  4997                           ; Vector 47 : I2C2TX
  4998   004066  102B               	dw	ivt0x4008_undefint shr (0+2)
  4999                           
  5000                           ; Vector 48 : I2C2
  5001   004068  102B               	dw	ivt0x4008_undefint shr (0+2)
  5002                           
  5003                           ; Vector 49 : I2C2E
  5004   00406A  102B               	dw	ivt0x4008_undefint shr (0+2)
  5005                           
  5006                           ; Vector 50 : U2RX
  5007   00406C  102B               	dw	ivt0x4008_undefint shr (0+2)
  5008                           
  5009                           ; Vector 51 : U2TX
  5010   00406E  102B               	dw	ivt0x4008_undefint shr (0+2)
  5011                           
  5012                           ; Vector 52 : U2E
  5013   004070  102B               	dw	ivt0x4008_undefint shr (0+2)
  5014                           
  5015                           ; Vector 53 : U2
  5016   004072  102B               	dw	ivt0x4008_undefint shr (0+2)
  5017                           
  5018                           ; Vector 54 : TMR3
  5019   004074  102B               	dw	ivt0x4008_undefint shr (0+2)
  5020                           
  5021                           ; Vector 55 : TMR3G
  5022   004076  102B               	dw	ivt0x4008_undefint shr (0+2)
  5023                           
  5024                           ; Vector 56 : TMR4
  5025   004078  102B               	dw	ivt0x4008_undefint shr (0+2)
  5026                           
  5027                           ; Vector 57 : CCP2
  5028   00407A  102B               	dw	ivt0x4008_undefint shr (0+2)
  5029                           
  5030                           ; Vector 58 : Undefined
  5031   00407C  102B               	dw	ivt0x4008_undefint shr (0+2)
  5032                           
  5033                           ; Vector 59 : CWG2
  5034   00407E  102B               	dw	ivt0x4008_undefint shr (0+2)
  5035                           
  5036                           ; Vector 60 : CLC2
  5037   004080  102B               	dw	ivt0x4008_undefint shr (0+2)
  5038                           
  5039                           ; Vector 61 : INT2
  5040   004082  102B               	dw	ivt0x4008_undefint shr (0+2)
  5041                           
  5042                           ; Vector 62 : Undefined
  5043   004084  102B               	dw	ivt0x4008_undefint shr (0+2)
  5044                           
  5045                           ; Vector 63 : Undefined
  5046   004086  102B               	dw	ivt0x4008_undefint shr (0+2)
  5047                           
  5048                           ; Vector 64 : Undefined
  5049   004088  102B               	dw	ivt0x4008_undefint shr (0+2)
  5050                           
  5051                           ; Vector 65 : Undefined
  5052   00408A  102B               	dw	ivt0x4008_undefint shr (0+2)
  5053                           
  5054                           ; Vector 66 : Undefined
  5055   00408C  102B               	dw	ivt0x4008_undefint shr (0+2)
  5056                           
  5057                           ; Vector 67 : Undefined
  5058   00408E  102B               	dw	ivt0x4008_undefint shr (0+2)
  5059                           
  5060                           ; Vector 68 : Undefined
  5061   004090  102B               	dw	ivt0x4008_undefint shr (0+2)
  5062                           
  5063                           ; Vector 69 : Undefined
  5064   004092  102B               	dw	ivt0x4008_undefint shr (0+2)
  5065                           
  5066                           ; Vector 70 : TMR5
  5067   004094  102B               	dw	ivt0x4008_undefint shr (0+2)
  5068                           
  5069                           ; Vector 71 : TMR5G
  5070   004096  102B               	dw	ivt0x4008_undefint shr (0+2)
  5071                           
  5072                           ; Vector 72 : TMR6
  5073   004098  102B               	dw	ivt0x4008_undefint shr (0+2)
  5074                           
  5075                           ; Vector 73 : CCP3
  5076   00409A  102B               	dw	ivt0x4008_undefint shr (0+2)
  5077                           
  5078                           ; Vector 74 : CWG3
  5079   00409C  102B               	dw	ivt0x4008_undefint shr (0+2)
  5080                           
  5081                           ; Vector 75 : CLC3
  5082   00409E  102B               	dw	ivt0x4008_undefint shr (0+2)
  5083                           
  5084                           ; Vector 76 : Undefined
  5085   0040A0  102B               	dw	ivt0x4008_undefint shr (0+2)
  5086                           
  5087                           ; Vector 77 : Undefined
  5088   0040A2  102B               	dw	ivt0x4008_undefint shr (0+2)
  5089                           
  5090                           ; Vector 78 : Undefined
  5091   0040A4  102B               	dw	ivt0x4008_undefint shr (0+2)
  5092                           
  5093                           ; Vector 79 : Undefined
  5094   0040A6  102B               	dw	ivt0x4008_undefint shr (0+2)
  5095                           
  5096                           ; Vector 80 : CCP4
  5097   0040A8  102B               	dw	ivt0x4008_undefint shr (0+2)
  5098                           
  5099                           ; Vector 81 : CLC4
  5100   0040AA  102B               	dw	ivt0x4008_undefint shr (0+2)
  5101   0040AC                     ivt0x4008_undefint:
  5102                           	callstack 0
  5103   0040AC  00FF               	reset	
  5104                           
  5105                           	psect	rparam
  5106   000001                     ___rparam_used  equ	1
  5107   000000                     ___param_bank   equ	0
  5108   000000                     __Lparam        equ	__Lrparam
  5109   000000                     __Hparam        equ	__Hrparam
  5110                           
  5111                           	psect	config
  5112                           
  5113                           ;Config register CONFIG1L @ 0x300000
  5114                           ;	External Oscillator Selection
  5115                           ;	FEXTOSC = LP, LP (crystal oscillator) optimized for 32.768 kHz; PFM set to low power
  5116                           ;	Reset Oscillator Selection
  5117                           ;	RSTOSC = EXTOSC, EXTOSC operating per FEXTOSC bits (device manufacturing default)
  5118   300000                     	org	3145728
  5119   300000  F8                 	db	248
  5120                           
  5121                           ;Config register CONFIG1H @ 0x300001
  5122                           ;	Clock out Enable bit
  5123                           ;	CLKOUTEN = OFF, CLKOUT function is disabled
  5124                           ;	PRLOCKED One-Way Set Enable bit
  5125                           ;	PR1WAY = ON, PRLOCK bit can be cleared and set only once
  5126                           ;	Clock Switch Enable bit
  5127                           ;	CSWEN = ON, Writing to NOSC and NDIV is allowed
  5128                           ;	Fail-Safe Clock Monitor Enable bit
  5129                           ;	FCMEN = ON, Fail-Safe Clock Monitor enabled
  5130   300001                     	org	3145729
  5131   300001  FF                 	db	255
  5132                           
  5133                           ;Config register CONFIG2L @ 0x300002
  5134                           ;	MCLR Enable bit
  5135                           ;	MCLRE = EXTMCLR, If LVP = 0, MCLR pin is MCLR; If LVP = 1, RE3 pin function is MCLR
  5136                           ;	Power-up timer selection bits
  5137                           ;	PWRTS = PWRT_OFF, PWRT is disabled
  5138                           ;	Multi-vector enable bit
  5139                           ;	MVECEN = ON, Multi-vector enabled, Vector table used for interrupts
  5140                           ;	IVTLOCK bit One-way set enable bit
  5141                           ;	IVT1WAY = ON, IVTLOCK bit can be cleared and set only once
  5142                           ;	Low Power BOR Enable bit
  5143                           ;	LPBOREN = OFF, ULPBOR disabled
  5144                           ;	Brown-out Reset Enable bits
  5145                           ;	BOREN = SBORDIS, Brown-out Reset enabled , SBOREN bit is ignored
  5146   300002                     	org	3145730
  5147   300002  FF                 	db	255
  5148                           
  5149                           ;Config register CONFIG2H @ 0x300003
  5150                           ;	Brown-out Reset Voltage Selection bits
  5151                           ;	BORV = VBOR_2P45, Brown-out Reset Voltage (VBOR) set to 2.45V
  5152                           ;	ZCD Disable bit
  5153                           ;	ZCD = OFF, ZCD disabled. ZCD can be enabled by setting the ZCDSEN bit of ZCDCON
  5154                           ;	PPSLOCK bit One-Way Set Enable bit
  5155                           ;	PPS1WAY = ON, PPSLOCK bit can be cleared and set only once; PPS registers remain locke
      +                          d after one clear/set cycle
  5156                           ;	Stack Full/Underflow Reset Enable bit
  5157                           ;	STVREN = ON, Stack full/underflow will cause Reset
  5158                           ;	Debugger Enable bit
  5159                           ;	DEBUG = OFF, Background debugger disabled
  5160                           ;	Extended Instruction Set Enable bit
  5161                           ;	XINST = OFF, Extended Instruction Set and Indexed Addressing Mode disabled
  5162   300003                     	org	3145731
  5163   300003  FF                 	db	255
  5164                           
  5165                           ;Config register CONFIG3L @ 0x300004
  5166                           ;	WDT Period selection bits
  5167                           ;	WDTCPS = WDTCPS_31, Divider ratio 1:65536; software control of WDTPS
  5168                           ;	WDT operating mode
  5169                           ;	WDTE = OFF, WDT Disabled; SWDTEN is ignored
  5170   300004                     	org	3145732
  5171   300004  9F                 	db	159
  5172                           
  5173                           ;Config register CONFIG3H @ 0x300005
  5174                           ;	WDT Window Select bits
  5175                           ;	WDTCWS = WDTCWS_7, window always open (100%); software control; keyed access not requi
      +                          red
  5176                           ;	WDT input clock selector
  5177                           ;	WDTCCS = SC, Software Control
  5178   300005                     	org	3145733
  5179   300005  FF                 	db	255
  5180                           
  5181                           ;Config register CONFIG4L @ 0x300006
  5182                           ;	Boot Block Size selection bits
  5183                           ;	BBSIZE = BBSIZE_512, Boot Block size is 512 words
  5184                           ;	Boot Block enable bit
  5185                           ;	BBEN = OFF, Boot block disabled
  5186                           ;	Storage Area Flash enable bit
  5187                           ;	SAFEN = OFF, SAF disabled
  5188                           ;	Application Block write protection bit
  5189                           ;	WRTAPP = OFF, Application Block not write protected
  5190   300006                     	org	3145734
  5191   300006  FF                 	db	255
  5192                           
  5193                           ;Config register CONFIG4H @ 0x300007
  5194                           ;	Boot Block Write Protection bit
  5195                           ;	WRTB = OFF, Boot Block not write-protected
  5196                           ;	Configuration Register Write Protection bit
  5197                           ;	WRTC = OFF, Configuration registers not write-protected
  5198                           ;	Data EEPROM Write Protection bit
  5199                           ;	WRTD = OFF, Data EEPROM not write-protected
  5200                           ;	SAF Write protection bit
  5201                           ;	WRTSAF = OFF, SAF not Write Protected
  5202                           ;	Low Voltage Programming Enable bit
  5203                           ;	LVP = ON, Low voltage programming enabled. MCLR/VPP pin function is MCLR. MCLRE config
      +                          uration bit is ignored
  5204   300007                     	org	3145735
  5205   300007  FF                 	db	255
  5206                           
  5207                           ;Config register CONFIG5L @ 0x300008
  5208                           ;	PFM and Data EEPROM Code Protection bit
  5209                           ;	CP = OFF, PFM and Data EEPROM code protection disabled
  5210   300008                     	org	3145736
  5211   300008  FF                 	db	255
  5212                           
  5213                           ;Config register CONFIG5H @ 0x300009
  5214                           ;	unspecified, using default values
  5215   300009                     	org	3145737
  5216   300009  FF                 	db	255
  5217                           tosu	equ	0x3FFF
  5218                           tosh	equ	0x3FFE
  5219                           tosl	equ	0x3FFD
  5220                           stkptr	equ	0x3FFC
  5221                           pclatu	equ	0x3FFB
  5222                           pclath	equ	0x3FFA
  5223                           pcl	equ	0x3FF9
  5224                           tblptru	equ	0x3FF8
  5225                           tblptrh	equ	0x3FF7
  5226                           tblptrl	equ	0x3FF6
  5227                           tablat	equ	0x3FF5
  5228                           prodh	equ	0x3FF4
  5229                           prodl	equ	0x3FF3
  5230                           indf0	equ	0x3FEF
  5231                           postinc0	equ	0x3FEE
  5232                           postdec0	equ	0x3FED
  5233                           preinc0	equ	0x3FEC
  5234                           plusw0	equ	0x3FEB
  5235                           fsr0h	equ	0x3FEA
  5236                           fsr0l	equ	0x3FE9
  5237                           wreg	equ	0x3FE8
  5238                           indf1	equ	0x3FE7
  5239                           postinc1	equ	0x3FE6
  5240                           postdec1	equ	0x3FE5
  5241                           preinc1	equ	0x3FE4
  5242                           plusw1	equ	0x3FE3
  5243                           fsr1h	equ	0x3FE2
  5244                           fsr1l	equ	0x3FE1
  5245                           bsr	equ	0x3FE0
  5246                           indf2	equ	0x3FDF
  5247                           postinc2	equ	0x3FDE
  5248                           postdec2	equ	0x3FDD
  5249                           preinc2	equ	0x3FDC
  5250                           plusw2	equ	0x3FDB
  5251                           fsr2h	equ	0x3FDA
  5252                           fsr2l	equ	0x3FD9
  5253                           status	equ	0x3FD8

Data Sizes:
    Strings     29
    Constant    0
    Data        0
    BSS         53
    Persistent  0
    Stack       0

Auto Spaces:
    Space          Size  Autos    Used
    COMRAM           95     69      90
    BANK0           160      4      36
    BANK1           256      0       0
    BANK2           256      0       0
    BANK3           256      0       0
    BANK4           256      0       0
    BANK5           256      0       0
    BANK6           256      0       0
    BANK7           256      0       0
    BANK8           256      0       0
    BANK9           256      0       0
    BANK10          256      0       0
    BANK11          256      0       0
    BANK12          256      0       0
    BANK13          256      0       0
    BANK14          256      0       0
    BANK15          256      0       0
    BANK16          256      0       0
    BANK17          256      0       0
    BANK18          256      0       0
    BANK19          256      0       0
    BANK20          256      0       0
    BANK21          256      0       0
    BANK22          256      0       0
    BANK23          256      0       0
    BANK24          256      0       0
    BANK25          256      0       0
    BANK26          256      0       0
    BANK27          256      0       0
    BANK28          256      0       0
    BANK29          256      0       0
    BANK30          256      0       0
    BANK31          256      0       0

Pointer List with Targets:

    f$.$buffer	PTR unsigned char  size(1) Largest target is 10
		 -> data(COMRAM[10]), 

    f$.$source	PTR const unsigned char  size(2) Largest target is 0

    fputc@fp	PTR struct _IO_FILE size(1) Largest target is 12
		 -> sprintf@f(COMRAM[11]), 

    fputc@fp$.$buffer	PTR unsigned char  size(1) Largest target is 10
		 -> data(COMRAM[10]), 

    fputc@fp$.$source	PTR const unsigned char  size(2) Largest target is 0

    LCD_String@msg	PTR const unsigned char  size(2) Largest target is 17
		 -> data(COMRAM[10]), STR_1(CODE[17]), 

    LCD_String_xy@msg	PTR const unsigned char  size(2) Largest target is 17
		 -> data(COMRAM[10]), STR_1(CODE[17]), 

    S1004$buffer	PTR unsigned char  size(1) Largest target is 10
		 -> data(COMRAM[10]), 

    S1004$source	PTR const unsigned char  size(2) Largest target is 0

    sp__strcat	PTR unsigned char  size(1) Largest target is 10
		 -> data(COMRAM[10]), 

    sprintf@ap	PTR void [1] size(1) Largest target is 2
		 -> ?_sprintf(COMRAM[2]), 

    sprintf@fmt	PTR const unsigned char  size(1) Largest target is 3
		 -> STR_2(CODE[3]), 

    sprintf@s	PTR unsigned char  size(1) Largest target is 10
		 -> data(COMRAM[10]), 

    strcat@dest	PTR unsigned char  size(1) Largest target is 10
		 -> data(COMRAM[10]), 

    strcat@src	PTR const unsigned char  size(1) Largest target is 9
		 -> STR_3(CODE[9]), 

    vfpfcnvrt@ap	PTR PTR void  size(1) Largest target is 1
		 -> sprintf@ap(COMRAM[1]), 

    vfpfcnvrt@cp	PTR unsigned char  size(1) Largest target is 3
		 -> STR_2(CODE[3]), 

    vfpfcnvrt@fmt	PTR PTR unsigned char  size(1) Largest target is 1
		 -> vfprintf@cfmt(COMRAM[1]), 

    vfpfcnvrt@fp	PTR struct _IO_FILE size(1) Largest target is 12
		 -> sprintf@f(COMRAM[11]), 

    vfprintf@ap	PTR PTR void  size(1) Largest target is 1
		 -> sprintf@ap(COMRAM[1]), 

    vfprintf@cfmt	PTR unsigned char  size(1) Largest target is 3
		 -> STR_2(CODE[3]), 

    vfprintf@fmt	PTR const unsigned char  size(1) Largest target is 3
		 -> STR_2(CODE[3]), 

    vfprintf@fp	PTR struct _IO_FILE size(1) Largest target is 12
		 -> sprintf@f(COMRAM[11]), 


Critical Paths under _main in COMRAM

    _main->___fltol
    _sprintf->_vfprintf
    _vfprintf->_vfpfcnvrt
    _vfpfcnvrt->_abs
    _abs->___awmod
    ___fltol->___fladd
    ___flmul->___xxtofl
    ___fladd->___flmul
    _LCD_String_xy->_LCD_String
    _LCD_String->_LCD_Char
    _LCD_Char->_MSdelay
    _LCD_Init->_LCD_Command
    _LCD_Command->_MSdelay

Critical Paths under _IOC_ISR in COMRAM

    None.

Critical Paths under _main in BANK0

    None.

Critical Paths under _IOC_ISR in BANK0

    None.

Critical Paths under _main in BANK1

    None.

Critical Paths under _IOC_ISR in BANK1

    None.

Critical Paths under _main in BANK2

    None.

Critical Paths under _IOC_ISR in BANK2

    None.

Critical Paths under _main in BANK3

    None.

Critical Paths under _IOC_ISR in BANK3

    None.

Critical Paths under _main in BANK4

    None.

Critical Paths under _IOC_ISR in BANK4

    None.

Critical Paths under _main in BANK5

    None.

Critical Paths under _IOC_ISR in BANK5

    None.

Critical Paths under _main in BANK6

    None.

Critical Paths under _IOC_ISR in BANK6

    None.

Critical Paths under _main in BANK7

    None.

Critical Paths under _IOC_ISR in BANK7

    None.

Critical Paths under _main in BANK8

    None.

Critical Paths under _IOC_ISR in BANK8

    None.

Critical Paths under _main in BANK9

    None.

Critical Paths under _IOC_ISR in BANK9

    None.

Critical Paths under _main in BANK10

    None.

Critical Paths under _IOC_ISR in BANK10

    None.

Critical Paths under _main in BANK11

    None.

Critical Paths under _IOC_ISR in BANK11

    None.

Critical Paths under _main in BANK12

    None.

Critical Paths under _IOC_ISR in BANK12

    None.

Critical Paths under _main in BANK13

    None.

Critical Paths under _IOC_ISR in BANK13

    None.

Critical Paths under _main in BANK14

    None.

Critical Paths under _IOC_ISR in BANK14

    None.

Critical Paths under _main in BANK15

    None.

Critical Paths under _IOC_ISR in BANK15

    None.

Critical Paths under _main in BANK16

    None.

Critical Paths under _IOC_ISR in BANK16

    None.

Critical Paths under _main in BANK17

    None.

Critical Paths under _IOC_ISR in BANK17

    None.

Critical Paths under _main in BANK18

    None.

Critical Paths under _IOC_ISR in BANK18

    None.

Critical Paths under _main in BANK19

    None.

Critical Paths under _IOC_ISR in BANK19

    None.

Critical Paths under _main in BANK20

    None.

Critical Paths under _IOC_ISR in BANK20

    None.

Critical Paths under _main in BANK21

    None.

Critical Paths under _IOC_ISR in BANK21

    None.

Critical Paths under _main in BANK22

    None.

Critical Paths under _IOC_ISR in BANK22

    None.

Critical Paths under _main in BANK23

    None.

Critical Paths under _IOC_ISR in BANK23

    None.

Critical Paths under _main in BANK24

    None.

Critical Paths under _IOC_ISR in BANK24

    None.

Critical Paths under _main in BANK25

    None.

Critical Paths under _IOC_ISR in BANK25

    None.

Critical Paths under _main in BANK26

    None.

Critical Paths under _IOC_ISR in BANK26

    None.

Critical Paths under _main in BANK27

    None.

Critical Paths under _IOC_ISR in BANK27

    None.

Critical Paths under _main in BANK28

    None.

Critical Paths under _IOC_ISR in BANK28

    None.

Critical Paths under _main in BANK29

    None.

Critical Paths under _IOC_ISR in BANK29

    None.

Critical Paths under _main in BANK30

    None.

Critical Paths under _IOC_ISR in BANK30

    None.

Critical Paths under _main in BANK31

    None.

Critical Paths under _IOC_ISR in BANK31

    None.

Call Graph Tables:

 ---------------------------------------------------------------------------------
 (Depth) Function   	        Calls       Base Space   Used Autos Params    Refs
 ---------------------------------------------------------------------------------
 (0) _main                                                 4     4      0    9862
                                              0 BANK0      4     4      0
                           _ADC_Init
                         _IOCC2_Init
                           _LCD_Init
                      _LCD_String_xy
                            ___fladd
                            ___flmul
                            ___fltol
                           ___xxtofl
                            _sprintf
                             _strcat
 ---------------------------------------------------------------------------------
 (1) _strcat                                               4     2      2     180
                                              4 COMRAM     4     2      2
 ---------------------------------------------------------------------------------
 (1) _sprintf                                             18    14      4    2598
                                             29 COMRAM    16    12      4
                           _vfprintf
 ---------------------------------------------------------------------------------
 (2) _vfprintf                                             4     1      3    2286
                                             25 COMRAM     4     1      3
                          _vfpfcnvrt
 ---------------------------------------------------------------------------------
 (3) _vfpfcnvrt                                           11     8      3    2086
                                             14 COMRAM    11     8      3
                            ___awdiv
                            ___awmod
                                _abs
                              _fputc
 ---------------------------------------------------------------------------------
 (4) _fputc                                                8     5      3     329
                                              4 COMRAM     8     5      3
                              _putch
 ---------------------------------------------------------------------------------
 (5) _putch                                                1     1      0       0
 ---------------------------------------------------------------------------------
 (4) _abs                                                  4     2      2      96
                                             10 COMRAM     4     2      2
                            ___awmod (ARG)
 ---------------------------------------------------------------------------------
 (4) ___awmod                                              6     2      4     439
                                              4 COMRAM     6     2      4
 ---------------------------------------------------------------------------------
 (4) ___awdiv                                              8     4      4     451
                                              4 COMRAM     8     4      4
 ---------------------------------------------------------------------------------
 (1) ___xxtofl                                            14    10      4     511
                                              4 COMRAM    14    10      4
 ---------------------------------------------------------------------------------
 (1) ___fltol                                             10     6      4     340
                                             59 COMRAM    10     6      4
                            ___fladd (ARG)
                            ___flmul (ARG)
 ---------------------------------------------------------------------------------
 (1) ___flmul                                             25    17      8    2205
                                             18 COMRAM    25    17      8
                           ___xxtofl (ARG)
 ---------------------------------------------------------------------------------
 (1) ___fladd                                             16     8      8    2948
                                             43 COMRAM    16     8      8
                            ___flmul (ARG)
 ---------------------------------------------------------------------------------
 (1) _LCD_String_xy                                        5     2      3     675
                                             13 COMRAM     5     2      3
                        _LCD_Command
                         _LCD_String
 ---------------------------------------------------------------------------------
 (2) _LCD_String                                           2     0      2     260
                                             11 COMRAM     2     0      2
                           _LCD_Char
 ---------------------------------------------------------------------------------
 (3) _LCD_Char                                             1     1      0     192
                                             10 COMRAM     1     1      0
                            _MSdelay
 ---------------------------------------------------------------------------------
 (1) _LCD_Init                                             0     0      0     337
                        _LCD_Command
                            _MSdelay
 ---------------------------------------------------------------------------------
 (2) _LCD_Command                                          1     1      0     192
                                             10 COMRAM     1     1      0
                            _MSdelay
 ---------------------------------------------------------------------------------
 (4) _MSdelay                                              6     4      2     145
                                              4 COMRAM     6     4      2
 ---------------------------------------------------------------------------------
 (1) _IOCC2_Init                                           0     0      0       0
 ---------------------------------------------------------------------------------
 (1) _ADC_Init                                             0     0      0       0
 ---------------------------------------------------------------------------------
 Estimated maximum stack depth 5
 ---------------------------------------------------------------------------------
 (Depth) Function   	        Calls       Base Space   Used Autos Params    Refs
 ---------------------------------------------------------------------------------
 (6) _IOC_ISR                                              4     4      0      30
                                              0 COMRAM     4     4      0
 ---------------------------------------------------------------------------------
 Estimated maximum stack depth 6
 ---------------------------------------------------------------------------------

 Call Graph Graphs:

 _main (ROOT)
   _ADC_Init
   _IOCC2_Init
   _LCD_Init
     _LCD_Command
       _MSdelay
     _MSdelay
   _LCD_String_xy
     _LCD_Command
     _LCD_String
       _LCD_Char
         _MSdelay
   ___fladd
     ___flmul (ARG)
       ___xxtofl (ARG)
   ___flmul
   ___fltol
     ___fladd (ARG)
     ___flmul (ARG)
   ___xxtofl
   _sprintf
     _vfprintf
       _vfpfcnvrt
         ___awdiv
         ___awmod
         _abs
           ___awmod (ARG)
         _fputc
           _putch
   _strcat

 _IOC_ISR (ROOT)

Address spaces:
Name               Size   Autos  Total    Usage
BIGRAM            8191      0       0      0.0%
BITBIGSFRlh       1169      0       0      0.0%
BITBIGSFRlll       400      0       0      0.0%
BITBIGSFRh         263      0       0      0.0%
BITBANK31          256      0       0      0.0%
BANK31             256      0       0      0.0%
BITBANK30          256      0       0      0.0%
BANK30             256      0       0      0.0%
BITBANK29          256      0       0      0.0%
BANK29             256      0       0      0.0%
BITBANK28          256      0       0      0.0%
BANK28             256      0       0      0.0%
BITBANK27          256      0       0      0.0%
BANK27             256      0       0      0.0%
BITBANK26          256      0       0      0.0%
BANK26             256      0       0      0.0%
BITBANK25          256      0       0      0.0%
BANK25             256      0       0      0.0%
BITBANK24          256      0       0      0.0%
BANK24             256      0       0      0.0%
BITBANK23          256      0       0      0.0%
BANK23             256      0       0      0.0%
BITBANK22          256      0       0      0.0%
BANK22             256      0       0      0.0%
BITBANK21          256      0       0      0.0%
BANK21             256      0       0      0.0%
BITBANK20          256      0       0      0.0%
BANK20             256      0       0      0.0%
BITBANK19          256      0       0      0.0%
BANK19             256      0       0      0.0%
BITBANK18          256      0       0      0.0%
BANK18             256      0       0      0.0%
BITBANK17          256      0       0      0.0%
BANK17             256      0       0      0.0%
BITBANK16          256      0       0      0.0%
BANK16             256      0       0      0.0%
BITBANK15          256      0       0      0.0%
BANK15             256      0       0      0.0%
BITBANK14          256      0       0      0.0%
BANK14             256      0       0      0.0%
BITBANK13          256      0       0      0.0%
BANK13             256      0       0      0.0%
BITBANK12          256      0       0      0.0%
BANK12             256      0       0      0.0%
BITBANK11          256      0       0      0.0%
BANK11             256      0       0      0.0%
BITBANK10          256      0       0      0.0%
BANK10             256      0       0      0.0%
BITBANK9           256      0       0      0.0%
BANK9              256      0       0      0.0%
BITBANK8           256      0       0      0.0%
BANK8              256      0       0      0.0%
BITBANK7           256      0       0      0.0%
BANK7              256      0       0      0.0%
BITBANK6           256      0       0      0.0%
BANK6              256      0       0      0.0%
BITBANK5           256      0       0      0.0%
BANK5              256      0       0      0.0%
BITBANK4           256      0       0      0.0%
BANK4              256      0       0      0.0%
BITBANK3           256      0       0      0.0%
BANK3              256      0       0      0.0%
BITBANK2           256      0       0      0.0%
BANK2              256      0       0      0.0%
BITBANK1           256      0       0      0.0%
BANK1              256      0       0      0.0%
BITBIGSFRllh       213      0       0      0.0%
BITBANK0           160      0       0      0.0%
BANK0              160      4      36     22.5%
BITCOMRAM           95      0       0      0.0%
COMRAM              95     69      90     94.7%
STACK                0      0       0      0.0%
DATA                 0      0     126      0.0%


Microchip Technology PIC18 Macro Assembler V3.00 build 20241204225717 
Symbol Table                                                                                   Tue May 06 15:55:04 2025

           ?_LCD_Command 0001                       l98 4D54             ___awdiv@sign 000A  
            ?_LCD_String 000C                      l110 5484                      l130 53C4  
                    l107 54D0                      l116 550C                      l141 54AC  
                    l125 5228                      l119 54EE                      l138 5344  
                    l441 4F9A                      l375 505C                      l705 452A  
                    l802 4D28                      l388 510A                      l813 4CC0  
                    l806 4C64                      l822 53F8                      l672 429A  
                    l681 4566                      l673 4288                      l905 52FA  
                    l674 424E                      l762 49B0                      l860 4B74  
                    l765 4846                      l686 4442                      l766 4864  
                    l758 462C                      l870 5414                      l775 4972  
                    l767 48BC                      l768 48AA                      l689 43B4  
                    l873 542C                      l698 4482                      l866 5384  
                    l699 4470                      l885 51B6                      l799 4BCC  
                    l896 550E                      _abs 53FA             ___awmod@sign 000A  
                    wreg 3FE8             ___flmul@aexp 0020             ___flmul@bexp 0025  
           ___flmul@sign 001F             ___flmul@temp 002A             ___flmul@prod 0026  
            LCD_Char@dat 000B          __end_of_IOC_ISR 529E             ___fltol@exp1 0045  
                   ?_abs 000B                     l3001 4C5A                     l3011 4CD0  
                   l3003 4C96                     l3021 4D18                     l3013 4CD4  
                   l3005 4CA2                     l3015 4CF8                     l3007 4CB0  
                   l3031 4D36                     l3017 4D08                     l3009 4CCE  
                   l2401 5076                     l3041 4D7C                     l3033 4D38  
                   l3025 4D2A                     l3019 4D16                     l2411 50AA  
                   l2403 507A                     l3051 4E64                     l3043 4DC8  
                   l3035 4D3A                     l3027 4D2E                     l2421 50E4  
                   l2413 50B2                     l2405 5088                     l2501 4B44  
                   l3053 4E74                     l3045 4E3C                     l3037 4D50  
                   l3029 4D32                     l2343 5310                     l2335 52FC  
                   l2511 54F2                     l2351 4F9C                     l2415 50C0  
                   l2423 50EA                     l2407 5090                     l2431 510C  
                   l3047 4E44                     l3039 4D62                     l2345 5314  
                   l2337 5308                     l2521 5500                     l2513 54F8  
                   l2361 4FC6                     l2353 4F9E                     l2425 50FA  
                   l2417 50D6                     l2409 50A2                     l2441 5184  
                   l2433 511C                     l2505 4B50                     l3049 4E58  
                   l2347 532A                     l2515 54FA                     l2451 54DA  
                   l2523 51B8                     l2371 4FF4                     l2363 4FCE  
                   l2355 4FAC                     l2427 5102                     l2419 50DE  
                   l2435 512C                     l2531 5346                     l2611 52D0  
                   l2603 529E                     l2541 5486                     l2349 532E  
                   l2517 54FC                     l2453 54DC                     l2525 51BC  
                   l2701 4268                     l2621 40DE                     l2613 40B2  
                   l2381 502E                     l2373 4FFC                     l2365 4FD2  
                   l2357 4FB4                     l2445 53FA                     l2437 5136  
                   l2461 49B2                     l2533 534E                     l2605 52AA  
                   l2551 549C                     l2543 5490                     l2519 54FE  
                   l2455 54DE                     l2527 51EA                     l2711 42A8  
                   l2703 426C                     l2631 4116                     l2623 40EE  
                   l2615 40BE                     l2391 5054                     l2383 5030  
                   l2375 500A                     l2367 4FDA                     l2359 4FB8  
                   l2447 5408                     l2439 5152                     l2471 49F8  
                   l2463 49D6                     l2535 535E                     l2607 52AE  
                   l2561 54A6                     l2553 549E                     l2545 5492  
                   l2457 54E0                     l2449 54D4                     l2529 51EE  
                   l2801 4554                     l2721 42EA                     l2713 42B8  
                   l2705 427A                     l2641 4144                     l2633 411C  
                   l2625 40FE                     l2617 40CC                     l2385 5036  
                   l2377 5010                     l2369 4FEC                     l2481 4A72  
                   l2473 4A16                     l2465 49DE                     l2537 537C  
                   l2609 52CA                     l2563 54A8                     l2555 54A0  
                   l2547 5494                     l2571 546A                     l2459 54E2  
                   l2803 4556                     l2731 4318                     l2723 42F8  
                   l2707 427C                     l2651 4178                     l2643 4146  
                   l2635 412E                     l2627 4100                     l2619 40CE  
                   l2811 4582                     l2379 5026                     l2387 503C  
                   l2395 505E                     l2491 4AF0                     l2483 4AA2  
                   l2475 4A34                     l2467 49EA                     l2565 54AA  
                   l2557 54A2                     l2549 5498                     l2573 54AE  
                   l2581 5398                     l2741 4384                     l2733 4322  
                   l2725 4304                     l2717 42CC                     l2709 4286  
                   l2661 41B2                     l2645 4156                     l2653 417E  
                   l2637 4130                     l2629 4106                     l2821 45BA  
                   l2813 4584                     l2389 504C                     l2397 5060  
                   l2493 4B00                     l2485 4ABE                     l2477 4A50  
                   l2469 49EE                     l2559 54A4                     l2575 54C8  
                   l2567 545C                     l2583 53A0                     l2743 4394  
                   l2727 4308                     l2719 42DC                     l2735 4328  
                   l2671 41C6                     l2663 41B6                     l2655 418E  
                   l2647 4166                     l2639 4136                     l2903 48CC  
                   l2911 4914                     l2831 45E6                     l2823 45CA  
                   l2815 4594                     l2807 4568                     l2399 506E  
                   l2495 4B12                     l2487 4AD0                     l2479 4A5A  
                   l2591 53C6                     l2569 5468                     l2585 53AA  
                   l2577 5388                     l2761 4416                     l2753 43EE  
                   l2737 434E                     l2745 43A4                     l2729 4316  
                   l2681 41DA                     l2673 41CA                     l2665 41BA  
                   l2657 41A0                     l2649 4176                     l2921 4976  
                   l2913 492E                     l2905 48D8                     l2841 463C  
                   l2833 45F6                     l2825 45D0                     l2817 45A4  
                   l2809 4574                     l2497 4B2C                     l2489 4AE0  
                   l2593 53CE                     l2587 53B2                     l2579 5388  
                   l2771 4452                     l2763 441E                     l2755 43F8  
                   l2747 43CA                     l2739 4382                     l2683 41DE  
                   l2675 41CE                     l2667 41BE                     l2659 41AE  
                   l2691 41EE                     l2931 49A0                     l2923 4986  
                   l2915 4942                     l2907 48E6                     l2851 467A  
                   l2843 464C                     l2835 4606                     l2827 45D6  
                   l2819 45B4                     l2499 4B2E                     l2595 53D6  
                   l2589 53B8                     l2781 44AC                     l2773 4468  
                   l2765 4422                     l2757 4406                     l2749 43DA  
                   l2693 421A                     l2685 41E2                     l2677 41D2  
                   l2669 41C2                     l2925 4994                     l2917 495C  
                   l2909 4910                     l2861 46D4                     l2853 4694  
                   l2837 4616                     l2829 45E4                     l2941 4EC0  
                   l2597 53DE                     l2791 4528                     l2783 44E6  
                   l2767 4432                     l2759 4408                     l2695 4236  
                   l2687 41E6                     l2679 41D6                     l2927 4996  
                   l2919 496C                     l2871 4722                     l2863 46E2  
                   l2855 46A0                     l2847 4660                     l2839 461C  
                   l2951 4F0E                     l2943 4EEA                     l2935 4E96  
                   l2599 53EE                     l2793 4538                     l2777 4492  
                   l2785 44E8                     l2769 4434                     l2697 4246  
                   l2689 41EA                     l2929 499C                     l2881 47A0  
                   l2873 4740                     l2865 46F2                     l2857 46BC  
                   l2849 4670                     l2961 4F3A                     l2945 4EEC  
                   l2937 4EAC                     l2795 453E                     l2787 44F8  
                   l2779 449E                     l2699 425C                     l2891 4836  
                   l2883 47CA                     l2875 4750                     l2867 4702  
                   l2859 46C8                     l2971 4F6A                     l2947 4EFC  
                   l2797 4540                     l2789 4508                     l2893 4844  
                   l2885 4800                     l2877 4770                     l2869 4712  
                   l2973 4F7A                     l2957 4F26                     l2949 4F00  
                   l2981 4B88                     l2799 4546                     l2895 4856  
                   l2887 480E                     l2879 4780                     l2975 4F8A  
                   l2967 4F4E                     l2959 4F30                     l2991 4C06  
                   l2983 4B96                     l2897 4874                     l2889 482C  
                   l2969 4F5A                     l2993 4C0E                     l2985 4BDC  
                   l2899 48A2                     l2995 4C1A                     l2987 4BF2  
                   l2979 4B78                     l2997 4C4C                     l2999 4C4E  
                   STR_1 2001                     STR_2 201B                     STR_3 2012  
                   u3000 4508                     u3001 4504                     u3010 4528  
                   u3011 4524                     u2300 5344                     u3020 4538  
                   u3100 463C                     u2301 5340                     u3021 4534  
                   u3101 4638                     u3030 4554                     u3110 464C  
                   u2310 4FAC                     _LATB 3FBB                     u3031 4550  
                   u3111 4648                     u2311 4FA8                     u3200 492E  
                   u3120 47EA                     u3040 4582                     u2320 4FC6  
                   u2400 50C0                     u3201 492A                     u3041 457E  
                   u2321 4FC2                     u2401 50BC                     u3210 495C  
                   u3130 4844                     u3050 4594                     u2330 4FEC  
                   u2410 50D6                     u3211 4958                     u3131 4840  
                   u3051 4590                     u2331 4FE8                     u2411 50D2  
                   u3220 4994                     u3140 4864                     u3060 45A4  
                   u3300 4B88                     u2340 500A                     u2420 50FA  
                   u2500 4A34                     u3221 4990                     u3141 4860  
                   u3125 47E0                     u3061 45A0                     u3301 4B84  
                   u2341 5006                     u2421 50F6                     u2501 4A30  
                   u3150 4874                     u3070 45E4                     u3230 4EAC  
                   u3310 4B96                     u2350 5026                     u2430 511C  
                   u2510 4A6E                     u3151 4870                     u3071 45E0  
                   u3231 4EA8                     u3311 4B92                     u2351 5022  
                   u2431 5118                     u2511 4A68                     u2600 5228  
                   u3160 48A2                     u3080 45F6                     u3240 4EE0  
                   u3320 4BF2                     u2360 504C                     u2440 512C  
                   u2520 4A70                     u3400 4D62                     u2601 5224  
                   u3161 489E                     u3081 45F2                     u3321 4BEE  
                   u2361 5048                     u2441 5128                     u3401 4D5E  
                   u2290 532A                     u3170 48B8                     u3090 4606  
                   u3250 4F0E                     u3330 4C48                     u2370 506E  
                   u2450 5152                     u2530 4AD0                     u2610 537C  
                   u3410 4E3C                     u2291 5326                     u3171 48B4  
                   u3091 4602                     u3251 4F0A                     u3331 4C44  
                   u2371 506A                     u2451 514E                     u2531 4ACC  
                   u2611 5378                     u3411 4E38                     u2620 5398  
                   u2700 4156                     u3180 48CC                     u3260 4F22  
                   u3340 4C92                     u2380 5088                     u2460 5184  
                   u2540 4AE0                     u2621 5394                     u2701 4152  
                   u3181 48C8                     u3261 4F1E                     u3245 4ED6  
                   u3341 4C8E                     u2381 5084                     u2461 5180  
                   u2541 4ADC                     u2710 4166                     u3190 48E6  
                   u3270 4F4A                     u3350 4CB0                     u2390 50A2  
                   u2470 5408                     u2550 4AF0                     u2630 52C6  
                   u2711 4162                     u3191 48E2                     u3271 4F46  
                   u3351 4CAC                     u2391 509E                     u2471 5404  
                   u2551 4AEC                     u2631 52C2                     u2800 42A8  
                   u2720 41A0                     u3280 4F6A                     u3360 4CC0  
                   u2560 4B00                     u2480 49D6                     u2640 52FA  
                   u2801 42A4                     u2721 419C                     u3281 4F66  
                   u3361 4CBC                     u2561 4AFC                     u2481 49D2  
                   u2641 52F6                     u2810 42B8                     u2730 41AE  
                   u2650 40CC                     u3290 4F7A                     u3370 4CCE  
                   u2570 4B40                     u2490 4A16                     u2811 42B4  
                   u2731 41AA                     u2651 40C8                     u3291 4F76  
                   u3371 4CCA                     u2571 4B3C                     u2491 4A12  
                   u3427 4E80                     u2580 51E6                     u2900 4416  
                   u2820 42EA                     u2740 421A                     u2660 40DE  
                   u3380 4D08                     u2901 4412                     u2821 42E6  
                   u2741 4216                     u2661 40DA                     u3381 4D04  
                   u2590 5218                     u2910 4432                     u2830 42F8  
                   u2750 4232                     u2670 40EE                     u3390 4D16  
                   u2911 442E                     u2831 42F4                     u2751 422C  
                   u2671 40EA                     u3391 4D12                     u2920 4442  
                   u2840 4316                     u2760 4234                     u2680 412E  
                   u2921 443E                     u2841 4312                     u2681 412A  
                   u2930 4452                     u2850 434E                     u2770 425C  
                   u2690 4144                     u2587 51D8                     u2931 444E  
                   u2851 434A                     u2771 4258                     u2691 4140  
                   u2940 4468                     u2860 4394                     u2780 427A  
                   u2597 520A                     u2941 4464                     u2861 4390  
                   u2781 4276                     u2950 447E                     u2870 43CA  
                   u2790 429A                     u2951 447A                     u2871 43C6  
                   u2791 4296                     u2960 4492                     u2880 43DA  
                   u2961 448E                     u2881 43D6                     u2970 44AC  
                   u2890 4406                     u2971 44A8                     u2891 4402  
                   u2980 44E6                     u2981 44E2                     u2990 44F8  
                   u2991 44F4                     i2l90 5244                     i2l91 5294  
                   i2l92 529C                     abs@a 000B                     _data 004D  
                   _dbuf 0060                     _main 4D2A                     _prec 0048  
                   fsr1h 3FE2                     fsr2h 3FDA                     indf1 3FE7  
                   indf2 3FDF                     fsr1l 3FE1                     fsr2l 3FD9  
       __end_of_ADC_Init 54AE                     prodh 3FF4                     prodl 3FF3  
                   start 40AE          __end_of_MSdelay 5346            _LCD_String_xy 5386  
           ___param_bank 0000                    ??_abs 000D         __end_of_LCD_Char 54F0  
       __end_of_LCD_Init 5486            ___fltol@sign1 0044          __end_of___fladd 4568  
                  ?_main 0001                    _ADCLK 3EFF                    _ADPCH 3EF1  
        __end_of___awdiv 505E          __end_of___awmod 510C          __end_of___flmul 49B2  
        __end_of___fltol 4F9C          ___awdiv@divisor 0007                    _LATD0 1FDE8  
                  _LATD1 1FDE9          ___awdiv@counter 0009             vfpfcnvrt@fmt 0010  
                  _TRISB 3FC3                    _TRISD 3FC5                    _flags 004C  
                  _fputc 510C                    _width 0046                    _putch 550E  
                  tablat 3FF5                    status 3FD8          __end_of_sprintf 53FA  
         ?_LCD_String_xy 000E          __initialization 542E             __end_of_main 4E96  
                 ??_main 0080            __activetblptr 0002                ??_IOC_ISR 0001  
                 _ADACQH 3EF4                   _ADACQL 3EF3                   ?_fputc 0005  
                 _ADRESH 3EF0                   _ADRESL 3EEF                   _ADPREH 3EF7  
                 _ADPREL 3EF6         ___awdiv@dividend 0005                   ?_putch 0001  
       LCD_String_xy@msg 000F         LCD_String_xy@pos 000E         LCD_String_xy@row 0011  
              ??_MSdelay 0007                   i2l1605 5246                   i2l1607 525C  
                 i2l1609 5274                   i2l1597 522C                   i2l1599 523C  
          vfpfcnvrt@done 0013         __end_of___xxtofl 4D2A             vfprintf@cfmt 001D  
              ??___fladd 0034                ??___awdiv 0009                ??___awmod 0009  
              ??___flmul 001B                ??___fltol 0040                   clear_0 5434  
                 clear_1 5440         ___awdiv@quotient 000B          ___awmod@divisor 0007  
                 isa$std 0001          ___awmod@counter 0009                   _strcat 529E  
                 fputc@c 0005                ?_ADC_Init 0001             __mediumconst 2000  
                 tblptrh 3FF7                   tblptrl 3FF6                   tblptru 3FF8  
                 putch@c 0001         __end_of_vfprintf 5386                ??_sprintf 0022  
           ??_IOCC2_Init 0005             ___xxtofl@arg 000F             ___xxtofl@exp 000E  
           ___xxtofl@val 0005                ?_LCD_Char 0001               __accesstop 0060  
__end_of__initialization 5452                ?_LCD_Init 0001          ??_LCD_String_xy 0011  
          ___rparam_used 0001               ___fltol@f1 003C           __pcstackCOMRAM 0001  
          __end_of_fputc 51B8            __end_of_putch 5510             ??_LCD_String 000E  
     __end_of_IOCC2_Init 54D2               ??_ADC_Init 0005                  ??_fputc 0008  
                ??_putch 0005               __pbssBANK0 0060               ??_LCD_Char 000B  
             ??_LCD_Init 000C       __end_of_LCD_String 522A                  IVTBASEH 3FD6  
                IVTBASEL 3FD5                  IVTBASEU 3FD7                  ?_strcat 0005  
                _IOC_ISR 522C                ?___xxtofl 0005                  _MSdelay 52FC  
          LCD_String@msg 000C                  __Hparam 0000                  __Lparam 0000  
                ___fladd 40B2                  ___awdiv 4F9C                  ___awmod 505E  
                ___flmul 4568                  ___fltol 4E96                ?_vfprintf 001A  
           __psmallconst 2000                  __pcinit 542E                  __ramtop 2000  
                _digital 004A            ivt0x4008_base 4008                  __ptext0 4D2A  
                __ptext1 529E                  __ptext2 53C6                  __ptext3 5346  
                __ptext4 49B2                  __ptext5 510C                  __ptext6 550E  
                __ptext7 53FA                  __ptext8 505E                  __ptext9 4F9C  
             ??___xxtofl 0009         ___awmod@dividend 0005                _IOCCFbits 3A67  
              _IOCCNbits 3A66                _IOCCPbits 3A65                  _sprintf 53C6  
                main@lux 0082                  _voltage 0057     end_of_initialization 5452  
                fputc@fp 0007           LCD_Command@cmd 000B            __Lmediumconst 0000  
      __end_of_vfpfcnvrt 4B76                  postdec2 3FDD                  postinc0 3FEE  
                postinc1 3FE6                  postinc2 3FDE         vfpfcnvrt@convarg 0015  
             ??_vfprintf 001D                  strcat@i 0007              ___fladd@grs 003B  
          ___xxtofl@sign 000D                _TRISAbits 3FC2                _TRISCbits 3FC4  
            ___flmul@grs 0021            ??_LCD_Command 000B              vfpfcnvrt@ap 0011  
            vfpfcnvrt@cp 0014              vfpfcnvrt@fp 000F           __end_of_strcat 52FC  
    start_initialization 542E              __end_of_abs 542E    __end_of_LCD_String_xy 53C6  
            vfprintf@fmt 001B                 ??_strcat 0007                ___fladd@a 0030  
              ___fladd@b 002C      __end_of_LCD_Command 550E                 ?_IOC_ISR 0001  
              ___flmul@a 0017                ___flmul@b 0013              __pbssCOMRAM 0046  
          __pcstackBANK0 0080                 IOC_ISR@i 0003                 ?_MSdelay 0005  
            __pivt0x4008 4008                 ?___fladd 002C                 ?___awdiv 0005  
               ?___awmod 0005                 ?___flmul 0013                 ?___fltol 003C  
            __smallconst 2000                 _ADC_Init 5486    LCD_String_xy@location 0012  
               ?_sprintf 001E                 MSdelay@i 0007                 MSdelay@j 0009  
               _LCD_Char 54D2                 _LCD_Init 545C                 _LATCbits 3FBC  
               _PIE0bits 3990                 _IVTBASEH 3FD6                 _IVTBASEL 3FD5  
               _IVTBASEU 3FD7                 i2u112_40 523C                 i2u112_41 5238  
               i2u113_40 5294                 i2u113_41 5290                 _PIR0bits 39A0  
               i2u343_47 5250                 i2u344_47 5268        ivt0x4008_undefint 40AC  
            _LCD_Command 54F0                _vfpfcnvrt 49B2               _ADCON0bits 3EF8  
               _WPUCbits 3A61               vfpfcnvrt@c 0019              _INTCON0bits 3FD2  
               __Hrparam 0000               vfprintf@ap 001C                 __Lrparam 0000  
             vfprintf@fp 001A               ?_vfpfcnvrt 000F               _ANSELAbits 3A40  
             _ANSELCbits 3A60               sprintf@fmt 001F                 ___xxtofl 4B76  
             strcat@dest 0005                 __ptext10 4B76                 __ptext11 4E96  
               __ptext20 54AE                 __ptext12 4568                 __ptext21 5486  
               __ptext13 40B2                 __ptext22 522C                 __ptext14 5386  
               __ptext15 51B8                 __ptext16 54D2                 __ptext17 545C  
               __ptext18 54F0                 __ptext19 52FC               _IOCC2_Init 54AE  
             MSdelay@val 0005                 isa$xinst 0000                 _vfprintf 5346  
             _LCD_String 51B8                 intlevel2 0000                sprintf@ap 0022  
              strcat@src 0006              ??_vfpfcnvrt 0012                 sprintf@f 0023  
               sprintf@s 001E            ___fladd@signs 0038              ?_IOCC2_Init 0001  
           ___fladd@aexp 0039             ___fladd@bexp 003A  
